TN:
SF:/io/lib/src/ExponentialRBF.cxx
FN:102,116,_ZNK5OTSVM14ExponentialRBF15partialGradientERKN2OT5PointES4_
FN:120,144,_ZNK5OTSVM14ExponentialRBF14partialHessianERKN2OT5PointES4_
FN:147,151,_ZNK5OTSVM14ExponentialRBF4saveERN2OT8AdvocateE
FN:154,158,_ZN5OTSVM14ExponentialRBF4loadERN2OT8AdvocateE
FN:32,32,_ZN5OTSVM14ExponentialRBF12GetClassNameB5cxx11Ev
FN:32,32,_ZNK5OTSVM14ExponentialRBF12getClassNameB5cxx11Ev
FN:37,42,_ZN5OTSVM14ExponentialRBFC2Ed
FN:46,49,_ZNK5OTSVM14ExponentialRBF5cloneEv
FN:53,57,_ZNK5OTSVM14ExponentialRBF8__repr__B5cxx11Ev
FN:61,64,_ZNK5OTSVM14ExponentialRBF8getSigmaEv
FN:66,69,_ZN5OTSVM14ExponentialRBF8setSigmaEd
FN:73,76,_ZNK5OTSVM14ExponentialRBF12getParameterEv
FN:78,83,_ZN5OTSVM14ExponentialRBF12setParameterERKN2OT5PointE
FN:87,90,_ZNK5OTSVM14ExponentialRBF23getParameterDescriptionEv
FN:93,98,_ZNK5OTSVM14ExponentialRBFclERKN2OT5PointES4_
FNDA:4,_ZNK5OTSVM14ExponentialRBF15partialGradientERKN2OT5PointES4_
FNDA:4,_ZNK5OTSVM14ExponentialRBF14partialHessianERKN2OT5PointES4_
FNDA:1,_ZNK5OTSVM14ExponentialRBF4saveERN2OT8AdvocateE
FNDA:1,_ZN5OTSVM14ExponentialRBF4loadERN2OT8AdvocateE
FNDA:17,_ZN5OTSVM14ExponentialRBF12GetClassNameB5cxx11Ev
FNDA:5,_ZNK5OTSVM14ExponentialRBF12getClassNameB5cxx11Ev
FNDA:3,_ZN5OTSVM14ExponentialRBFC2Ed
FNDA:3,_ZNK5OTSVM14ExponentialRBF5cloneEv
FNDA:4,_ZNK5OTSVM14ExponentialRBF8__repr__B5cxx11Ev
FNDA:4,_ZNK5OTSVM14ExponentialRBF8getSigmaEv
FNDA:0,_ZN5OTSVM14ExponentialRBF8setSigmaEd
FNDA:1,_ZNK5OTSVM14ExponentialRBF12getParameterEv
FNDA:1,_ZN5OTSVM14ExponentialRBF12setParameterERKN2OT5PointE
FNDA:1,_ZNK5OTSVM14ExponentialRBF23getParameterDescriptionEv
FNDA:8,_ZNK5OTSVM14ExponentialRBFclERKN2OT5PointES4_
FNF:15
FNH:14
DA:32,22
DA:37,3
DA:39,3
DA:42,3
DA:46,3
DA:48,3
DA:53,4
DA:55,8
DA:56,8
DA:61,4
DA:63,4
DA:66,0
DA:68,0
DA:69,0
DA:73,1
DA:75,1
DA:78,1
DA:80,1
DA:81,0
DA:82,1
DA:83,1
DA:87,1
DA:89,3
DA:90,2
DA:93,8
DA:95,8
DA:96,8
DA:97,8
DA:102,4
DA:105,4
DA:106,4
DA:107,4
DA:108,4
DA:110,12
DA:112,8
DA:115,4
DA:120,4
DA:123,4
DA:124,4
DA:125,4
DA:126,4
DA:128,12
DA:130,20
DA:132,12
DA:134,8
DA:138,4
DA:143,4
DA:147,1
DA:149,1
DA:150,1
DA:151,1
DA:154,1
DA:156,1
DA:157,1
DA:158,1
LF:55
LH:51
end_of_record
TN:
SF:/io/lib/src/KMeansClustering.cxx
FN:10,10,_ZN5OTSVM16KMeansClustering12GetClassNameB5cxx11Ev
FN:10,10,_ZNK5OTSVM16KMeansClustering12getClassNameB5cxx11Ev
FN:111,114,_ZN5OTSVM16KMeansClustering10getClusterEv
FN:116,119,_ZN5OTSVM16KMeansClustering8getMeansEv
FN:12,14,_ZN5OTSVM16KMeansClusteringC2Ev
FN:16,19,_ZNK5OTSVM16KMeansClustering5cloneEv
FN:21,26,_ZN5OTSVM16KMeansClusteringC2ERKN2OT6SampleEm
FN:28,109,_ZN5OTSVM16KMeansClustering3runEv
FNDA:0,_ZN5OTSVM16KMeansClustering12GetClassNameB5cxx11Ev
FNDA:0,_ZNK5OTSVM16KMeansClustering12getClassNameB5cxx11Ev
FNDA:2,_ZN5OTSVM16KMeansClustering10getClusterEv
FNDA:0,_ZN5OTSVM16KMeansClustering8getMeansEv
FNDA:0,_ZN5OTSVM16KMeansClusteringC2Ev
FNDA:0,_ZNK5OTSVM16KMeansClustering5cloneEv
FNDA:2,_ZN5OTSVM16KMeansClusteringC2ERKN2OT6SampleEm
FNDA:2,_ZN5OTSVM16KMeansClustering3runEv
FNF:8
FNH:3
DA:10,0
DA:12,0
DA:14,0
DA:16,0
DA:18,0
DA:21,2
DA:23,2
DA:24,2
DA:26,2
DA:28,2
DA:30,2
DA:31,2
DA:37,2
DA:39,2
DA:40,2
DA:42,6
DA:44,4
DA:45,14
DA:47,30
DA:51,30
DA:53,29887
DA:55,59718
DA:57,73218
DA:59,86718
DA:61,43359
DA:67,29859
DA:73,93
DA:75,65
DA:76,65
DA:77,73283
DA:79,73218
DA:81,29859
DA:82,29859
DA:85,65
DA:87,65
DA:89,65
DA:93,0
DA:96,65
DA:99,130
DA:109,2
DA:111,2
DA:113,2
DA:116,0
DA:118,0
LF:44
LH:36
end_of_record
TN:
SF:/io/lib/src/LibSVM.cxx
FN:102,105,_ZNK5OTSVM6LibSVM5cloneEv
FN:108,111,_ZN5OTSVM6LibSVM8setGammaEd
FN:114,117,_ZN5OTSVM6LibSVM17setTradeoffFactorEd
FN:120,123,_ZN5OTSVM6LibSVM22getNumberSupportVectorEv
FN:126,129,_ZN5OTSVM6LibSVM8setModelEP9svm_model
FN:131,150,_ZNK5OTSVM6LibSVM9getKernelEv
FN:153,173,_ZN5OTSVM6LibSVM16getSupportVectorEm
FN:176,179,_ZNK5OTSVM6LibSVM11getConstantEv
FN:182,185,_ZN5OTSVM6LibSVM10setEpsilonEd
FN:187,190,_ZN5OTSVM6LibSVM5setNuEd
FN:192,195,_ZN5OTSVM6LibSVM4setPEd
FN:199,205,_ZN5OTSVM6LibSVM20getSupportVectorCoefEv
FN:208,223,_ZNK5OTSVM6LibSVM13getKernelTypeEv
FN:225,252,_ZN5OTSVM6LibSVM13setKernelTypeEm
FN:255,258,_ZN5OTSVM6LibSVM7getNodeEm
FN:261,278,_ZN5OTSVM6LibSVM10setSvmTypeEm
FN:281,288,_ZN5OTSVM6LibSVM18setKernelParameterEd
FN:291,294,_ZNK5OTSVM6LibSVM8getGammaEv
FN:297,300,_ZNK5OTSVM6LibSVM9getDegreeEv
FN:301,304,_ZN5OTSVM6LibSVM9setDegreeEm
FN:307,310,_ZNK5OTSVM6LibSVM21getPolynomialConstantEv
FN:313,316,_ZN5OTSVM6LibSVM9getOutputEm
FN:320,323,_ZN5OTSVM6LibSVM12performTrainEv
FN:326,345,_ZN5OTSVM6LibSVM18runCrossValidationEv
FN:348,360,_ZN5OTSVM6LibSVM12computeErrorEv
FN:362,369,_ZN5OTSVM6LibSVM15computeAccuracyEv
FN:378,398,_ZNK5OTSVM6LibSVM9normalizeERKN2OT6SampleERNS1_8FunctionES6_
FN:401,404,_ZNK5OTSVM6LibSVM22getInputTransformationEv
FN:409,433,_ZN5OTSVM6LibSVM11convertDataERKN2OT6SampleES4_
FN:435,447,_ZN5OTSVM6LibSVM7destroyEv
FN:449,461,_ZN5OTSVM6LibSVM12destroyModelEv
FN:463,487,_ZNK5OTSVM6LibSVM8getLabelERKN2OT5PointE
FN:489,531,_ZNK5OTSVM6LibSVM14getLabelValuesERKN2OT5PointEl
FN:534,590,_ZNK5OTSVM6LibSVM7predictERKN2OT5PointE
FN:56,56,_ZN5OTSVM6LibSVM12GetClassNameB5cxx11Ev
FN:56,56,_ZNK5OTSVM6LibSVM12getClassNameB5cxx11Ev
FN:58,61,_ZN5OTSVM6LibSVM6SVMLogEPKc
FN:593,606,_ZN5OTSVM6LibSVM9setWeightERKN2OT5PointES4_
FN:64,98,_ZN5OTSVM6LibSVMC2Ev
FNDA:0,_ZNK5OTSVM6LibSVM5cloneEv
FNDA:0,_ZN5OTSVM6LibSVM8setGammaEd
FNDA:111,_ZN5OTSVM6LibSVM17setTradeoffFactorEd
FNDA:3917,_ZN5OTSVM6LibSVM22getNumberSupportVectorEv
FNDA:15,_ZN5OTSVM6LibSVM8setModelEP9svm_model
FNDA:9,_ZNK5OTSVM6LibSVM9getKernelEv
FNDA:9,_ZN5OTSVM6LibSVM16getSupportVectorEm
FNDA:27,_ZNK5OTSVM6LibSVM11getConstantEv
FNDA:0,_ZN5OTSVM6LibSVM10setEpsilonEd
FNDA:6,_ZN5OTSVM6LibSVM5setNuEd
FNDA:10,_ZN5OTSVM6LibSVM4setPEd
FNDA:9,_ZN5OTSVM6LibSVM20getSupportVectorCoefEv
FNDA:11,_ZNK5OTSVM6LibSVM13getKernelTypeEv
FNDA:16,_ZN5OTSVM6LibSVM13setKernelTypeEm
FNDA:1936,_ZN5OTSVM6LibSVM7getNodeEm
FNDA:16,_ZN5OTSVM6LibSVM10setSvmTypeEm
FNDA:833,_ZN5OTSVM6LibSVM18setKernelParameterEd
FNDA:7,_ZNK5OTSVM6LibSVM8getGammaEv
FNDA:0,_ZNK5OTSVM6LibSVM9getDegreeEv
FNDA:0,_ZN5OTSVM6LibSVM9setDegreeEm
FNDA:0,_ZNK5OTSVM6LibSVM21getPolynomialConstantEv
FNDA:0,_ZN5OTSVM6LibSVM9getOutputEm
FNDA:15,_ZN5OTSVM6LibSVM12performTrainEv
FNDA:818,_ZN5OTSVM6LibSVM18runCrossValidationEv
FNDA:0,_ZN5OTSVM6LibSVM12computeErrorEv
FNDA:6,_ZN5OTSVM6LibSVM15computeAccuracyEv
FNDA:23,_ZNK5OTSVM6LibSVM9normalizeERKN2OT6SampleERNS1_8FunctionES6_
FNDA:8,_ZNK5OTSVM6LibSVM22getInputTransformationEv
FNDA:15,_ZN5OTSVM6LibSVM11convertDataERKN2OT6SampleES4_
FNDA:9,_ZN5OTSVM6LibSVM7destroyEv
FNDA:9,_ZN5OTSVM6LibSVM12destroyModelEv
FNDA:872,_ZNK5OTSVM6LibSVM8getLabelERKN2OT5PointE
FNDA:13,_ZNK5OTSVM6LibSVM14getLabelValuesERKN2OT5PointEl
FNDA:10,_ZNK5OTSVM6LibSVM7predictERKN2OT5PointE
FNDA:0,_ZN5OTSVM6LibSVM12GetClassNameB5cxx11Ev
FNDA:0,_ZNK5OTSVM6LibSVM12getClassNameB5cxx11Ev
FNDA:131861,_ZN5OTSVM6LibSVM6SVMLogEPKc
FNDA:1,_ZN5OTSVM6LibSVM9setWeightERKN2OT5PointES4_
FNDA:20,_ZN5OTSVM6LibSVMC2Ev
FNF:39
FNH:29
DA:39,20
DA:56,0
DA:58,131861
DA:60,131861
DA:61,131861
DA:64,20
DA:65,20
DA:67,40
DA:70,20
DA:71,20
DA:72,20
DA:73,20
DA:74,20
DA:75,20
DA:76,20
DA:77,20
DA:78,20
DA:79,20
DA:80,20
DA:81,20
DA:82,20
DA:83,20
DA:84,20
DA:87,20
DA:88,20
DA:89,20
DA:90,20
DA:92,20
DA:93,20
DA:95,20
DA:96,20
DA:98,20
DA:102,0
DA:104,0
DA:108,0
DA:110,0
DA:111,0
DA:114,111
DA:116,111
DA:117,111
DA:120,3917
DA:122,3917
DA:126,15
DA:128,15
DA:129,15
DA:131,9
DA:133,9
DA:135,0
DA:136,0
DA:138,7
DA:139,14
DA:141,0
DA:142,0
DA:144,2
DA:145,4
DA:147,0
DA:148,0
DA:153,9
DA:155,9
DA:158,1945
DA:160,1936
DA:162,1936
DA:163,7622
DA:165,5686
DA:166,5686
DA:167,5686
DA:169,3872
DA:172,9
DA:176,27
DA:178,27
DA:182,0
DA:184,0
DA:185,0
DA:187,6
DA:189,6
DA:190,6
DA:192,10
DA:194,10
DA:195,10
DA:199,9
DA:201,9
DA:202,1945
DA:203,1936
DA:204,9
DA:208,11
DA:210,11
DA:220,0
DA:221,0
DA:225,16
DA:227,16
DA:229,2
DA:231,2
DA:232,2
DA:234,2
DA:236,2
DA:237,2
DA:239,12
DA:241,12
DA:242,12
DA:244,0
DA:246,0
DA:247,0
DA:249,0
DA:250,0
DA:252,16
DA:255,1936
DA:257,1936
DA:261,16
DA:263,16
DA:265,6
DA:267,6
DA:268,6
DA:270,10
DA:272,10
DA:273,10
DA:275,0
DA:276,0
DA:278,16
DA:281,833
DA:283,833
DA:285,0
DA:287,833
DA:288,833
DA:291,7
DA:293,7
DA:297,0
DA:299,0
DA:301,0
DA:303,0
DA:304,0
DA:307,0
DA:309,0
DA:313,0
DA:315,0
DA:320,15
DA:322,15
DA:323,15
DA:326,818
DA:328,818
DA:329,818
DA:332,818
DA:333,1636
DA:334,818
DA:337,371851
DA:339,371033
DA:342,818
DA:344,818
DA:348,0
DA:352,0
DA:354,0
DA:355,0
DA:357,0
DA:359,0
DA:362,6
DA:365,3599
DA:366,3593
DA:367,6
DA:368,6
DA:373,924
DA:378,23
DA:380,23
DA:381,23
DA:382,23
DA:383,23
DA:384,23
DA:385,70
DA:387,47
DA:388,47
DA:389,47
DA:391,47
DA:392,47
DA:395,23
DA:396,23
DA:397,46
DA:398,23
DA:401,8
DA:403,8
DA:409,15
DA:411,15
DA:412,15
DA:414,15
DA:415,15
DA:418,15
DA:419,15
DA:420,15
DA:421,15
DA:422,5558
DA:424,5543
DA:425,5543
DA:426,18727
DA:428,13184
DA:429,39552
DA:431,5543
DA:433,15
DA:435,9
DA:437,9
DA:439,9
DA:440,9
DA:442,9
DA:444,9
DA:445,9
DA:447,9
DA:449,9
DA:451,9
DA:453,9
DA:454,9
DA:456,9
DA:458,9
DA:459,9
DA:461,9
DA:463,872
DA:470,872
DA:472,872
DA:473,2618
DA:475,1746
DA:476,5238
DA:478,872
DA:480,872
DA:482,872
DA:483,872
DA:485,872
DA:489,13
DA:496,13
DA:498,13
DA:499,45
DA:501,32
DA:502,96
DA:504,13
DA:506,13
DA:507,13
DA:508,13
DA:511,13
DA:513,42
DA:515,48
DA:517,19
DA:518,5
DA:520,14
DA:525,42
DA:526,29
DA:529,13
DA:530,26
DA:534,10
DA:537,10
DA:538,30
DA:540,20
DA:541,60
DA:543,10
DA:545,10
DA:546,20
DA:547,20
DA:548,10
DA:550,0
DA:552,0
DA:553,0
DA:559,10
DA:560,10
DA:561,10
DA:563,10
DA:564,30
DA:565,20
DA:567,30
DA:568,30
DA:570,10
DA:571,2
DA:573,8
DA:577,20
DA:578,10
DA:581,10
DA:582,10
DA:583,10
DA:585,10
DA:586,10
DA:587,10
DA:588,10
DA:589,10
DA:593,1
DA:597,1
DA:598,1
DA:599,1
DA:601,862
DA:603,861
DA:604,861
DA:606,1
LF:283
LH:240
end_of_record
TN:
SF:/io/lib/src/LibSVM/svm.cpp
FN:1033,1143,_ZN9Solver_NU18select_working_setERiS0_
FN:107,112,_ZN5CacheD2Ev
FN:114,119,_ZN5Cache10lru_deleteEPNS_6head_tE
FN:1145,1163,_ZN9Solver_NU9be_shrunkEidddd
FN:1165,1215,_ZN9Solver_NU12do_shrinkingEv
FN:121,128,_ZN5Cache10lru_insertEPNS_6head_tE
FN:1217,1265,_ZN9Solver_NU13calculate_rhoEv
FN:1273,1281,_ZN5SVC_QC2ERK11svm_problemRK13svm_parameterPKa
FN:1283,1296,_ZNK5SVC_Q5get_QEii
FN:1298,1301,_ZNK5SVC_Q6get_QDEv
FN:130,158,_ZN5Cache8get_dataEiPPfi
FN:1303,1309,_ZNK5SVC_Q10swap_indexEii
FN:1311,1316,_ZN5SVC_QD0Ev
FN:1311,1316,_ZN5SVC_QD2Ev
FN:1326,1333,_ZN11ONE_CLASS_QC2ERK11svm_problemRK13svm_parameter
FN:1335,1345,_ZNK11ONE_CLASS_Q5get_QEii
FN:1347,1350,_ZNK11ONE_CLASS_Q6get_QDEv
FN:1352,1357,_ZNK11ONE_CLASS_Q10swap_indexEii
FN:1359,1363,_ZN11ONE_CLASS_QD0Ev
FN:1359,1363,_ZN11ONE_CLASS_QD2Ev
FN:1372,1392,_ZN5SVR_QC2ERK11svm_problemRK13svm_parameter
FN:1394,1399,_ZNK5SVR_Q10swap_indexEii
FN:1401,1421,_ZNK5SVR_Q5get_QEii
FN:1423,1426,_ZNK5SVR_Q6get_QDEv
FN:1428,1436,_ZN5SVR_QD0Ev
FN:1428,1436,_ZN5SVR_QD2Ev
FN:1450,1483,_ZL11solve_c_svcPK11svm_problemPK13svm_parameterPdPN6Solver12SolutionInfoEdd
FN:1485,1538,_ZL12solve_nu_svcPK11svm_problemPK13svm_parameterPdPN6Solver12SolutionInfoE
FN:1540,1570,_ZL15solve_one_classPK11svm_problemPK13svm_parameterPdPN6Solver12SolutionInfoE
FN:1572,1608,_ZL17solve_epsilon_svrPK11svm_problemPK13svm_parameterPdPN6Solver12SolutionInfoE
FN:160,189,_ZN5Cache10swap_indexEii
FN:1610,1646,_ZL12solve_nu_svrPK11svm_problemPK13svm_parameterPdPN6Solver12SolutionInfoE
FN:1657,1712,_ZL13svm_train_onePK11svm_problemPK13svm_parameterdd
FN:1715,1826,_ZL13sigmoid_trainiPKdS0_RdS1_
FN:1828,1836,_ZL15sigmoid_predictddd
FN:1839,1900,_ZL22multiclass_probabilityiPPdS_
FN:1903,1987,_ZL26svm_binary_svc_probabilityPK11svm_problemPK13svm_parameterddRdS5_
FN:2011,2018,_ZL14compare_doublePKvS0_
FN:2021,2064,_ZL25svm_one_class_probabilityPK11svm_problemPK9svm_modelPd
FN:2067,2096,_ZL19svm_svr_probabilityPK11svm_problemPK13svm_parameter
FN:2101,2174,_ZL17svm_group_classesPK11svm_problemPiPS2_S3_S3_S2_
FN:215,219,_ZNK6Kernel10swap_indexEii
FN:2179,2435,svm_train
FN:235,238,_ZNK6Kernel13kernel_linearEii
FN:239,242,_ZNK6Kernel11kernel_polyEii
FN:243,246,_ZNK6Kernel10kernel_rbfEii
FN:2438,2556,svm_cross_validation
FN:247,250,_ZNK6Kernel14kernel_sigmoidEii
FN:25,29,_Z5cloneIKP8svm_nodePKS0_EvRPT0_PT_i
FN:25,29,_Z5cloneIKddEvRPT0_PT_i
FN:25,29,_Z5cloneIddEvRPT0_PT_i
FN:251,254,_ZNK6Kernel18kernel_precomputedEii
FN:2559,2562,svm_get_svm_type
FN:2564,2567,svm_get_nr_class
FN:2569,2574,svm_get_labels
FN:257,290,_ZN6KernelC2EiPKP8svm_nodeRK13svm_parameter
FN:2576,2581,svm_get_sv_indices
FN:2583,2586,svm_get_nr_sv
FN:2588,2598,svm_get_svr_probability
FN:2600,2680,svm_predict_values
FN:2682,2695,svm_predict
FN:2697,2748,svm_predict_probability
FN:2760,2863,svm_save_model
FN:2868,2884,_ZL8readlineP8_IO_FILE
FN:2894,3013,_Z17read_model_headerP8_IO_FILEP9svm_model
FN:292,296,_ZN6KernelD0Ev
FN:292,296,_ZN6KernelD2Ev
FN:298,318,_ZN6Kernel3dotEPK8svm_nodeS2_
FN:3015,3122,svm_load_model
FN:3124,3160,svm_free_model_content
FN:3162,3170,svm_free_and_destroy_model
FN:3172,3176,svm_destroy_param
FN:3178,3294,svm_check_parameter
FN:320,377,_ZN6Kernel10k_functionEPK8svm_nodeS2_RK13svm_parameter
FN:3296,3304,svm_check_probability_model
FN:3306,3312,svm_set_print_string_function
FN:400,400,_ZN6SolverD0Ev
FN:400,400,_ZN6SolverD2Ev
FN:434,441,_ZN6Solver19update_alpha_statusEi
FN:45,49,_ZL19print_string_stdoutPKc
FN:454,464,_ZN6Solver10swap_indexEii
FN:466,506,_ZN6Solver20reconstruct_gradientEv
FN:508,787,_ZN6Solver5SolveEiRK7QMatrixPKdPKaPddddPNS_12SolutionInfoEi
FN:52,60,_ZL4infoPKcz
FN:790,887,_ZN6Solver18select_working_setERiS0_
FN:889,907,_ZN6Solver9be_shrunkEidd
FN:909,968,_ZN6Solver12do_shrinkingEv
FN:970,1006,_ZN6Solver13calculate_rhoEv
FN:98,105,_ZN5CacheC2Eil
FNDA:0,_ZN9Solver_NU18select_working_setERiS0_
FNDA:2957,_ZN5CacheD2Ev
FNDA:116235356,_ZN5Cache10lru_deleteEPNS_6head_tE
FNDA:0,_ZN9Solver_NU9be_shrunkEidddd
FNDA:0,_ZN9Solver_NU12do_shrinkingEv
FNDA:116885620,_ZN5Cache10lru_insertEPNS_6head_tE
FNDA:0,_ZN9Solver_NU13calculate_rhoEv
FNDA:1952,_ZN5SVC_QC2ERK11svm_problemRK13svm_parameterPKa
FNDA:2412973,_ZNK5SVC_Q5get_QEii
FNDA:1952,_ZNK5SVC_Q6get_QDEv
FNDA:116819570,_ZN5Cache8get_dataEiPPfi
FNDA:36581,_ZNK5SVC_Q10swap_indexEii
FNDA:0,_ZN5SVC_QD0Ev
FNDA:1952,_ZN5SVC_QD2Ev
FNDA:0,_ZN11ONE_CLASS_QC2ERK11svm_problemRK13svm_parameter
FNDA:0,_ZNK11ONE_CLASS_Q5get_QEii
FNDA:0,_ZNK11ONE_CLASS_Q6get_QDEv
FNDA:0,_ZNK11ONE_CLASS_Q10swap_indexEii
FNDA:0,_ZN11ONE_CLASS_QD0Ev
FNDA:0,_ZN11ONE_CLASS_QD2Ev
FNDA:1005,_ZN5SVR_QC2ERK11svm_problemRK13svm_parameter
FNDA:70463,_ZNK5SVR_Q10swap_indexEii
FNDA:114406597,_ZNK5SVR_Q5get_QEii
FNDA:1005,_ZNK5SVR_Q6get_QDEv
FNDA:0,_ZN5SVR_QD0Ev
FNDA:1005,_ZN5SVR_QD2Ev
FNDA:1952,_ZL11solve_c_svcPK11svm_problemPK13svm_parameterPdPN6Solver12SolutionInfoEdd
FNDA:0,_ZL12solve_nu_svcPK11svm_problemPK13svm_parameterPdPN6Solver12SolutionInfoE
FNDA:0,_ZL15solve_one_classPK11svm_problemPK13svm_parameterPdPN6Solver12SolutionInfoE
FNDA:1005,_ZL17solve_epsilon_svrPK11svm_problemPK13svm_parameterPdPN6Solver12SolutionInfoE
FNDA:36581,_ZN5Cache10swap_indexEii
FNDA:0,_ZL12solve_nu_svrPK11svm_problemPK13svm_parameterPdPN6Solver12SolutionInfoE
FNDA:2957,_ZL13svm_train_onePK11svm_problemPK13svm_parameterdd
FNDA:0,_ZL13sigmoid_trainiPKdS0_RdS1_
FNDA:0,_ZL15sigmoid_predictddd
FNDA:0,_ZL22multiclass_probabilityiPPdS_
FNDA:0,_ZL26svm_binary_svc_probabilityPK11svm_problemPK13svm_parameterddRdS5_
FNDA:0,_ZL14compare_doublePKvS0_
FNDA:0,_ZL25svm_one_class_probabilityPK11svm_problemPK9svm_modelPd
FNDA:0,_ZL19svm_svr_probabilityPK11svm_problemPK13svm_parameter
FNDA:1950,_ZL17svm_group_classesPK11svm_problemPiPS2_S3_S3_S2_
FNDA:0,_ZNK6Kernel10swap_indexEii
FNDA:2469,svm_train
FNDA:6161548,_ZNK6Kernel13kernel_linearEii
FNDA:0,_ZNK6Kernel11kernel_polyEii
FNDA:248723208,_ZNK6Kernel10kernel_rbfEii
FNDA:818,svm_cross_validation
FNDA:0,_ZNK6Kernel14kernel_sigmoidEii
FNDA:2957,_Z5cloneIKP8svm_nodePKS0_EvRPT0_PT_i
FNDA:2957,_Z5cloneIKddEvRPT0_PT_i
FNDA:2957,_Z5cloneIddEvRPT0_PT_i
FNDA:0,_ZNK6Kernel18kernel_precomputedEii
FNDA:30,svm_get_svm_type
FNDA:23,svm_get_nr_class
FNDA:10,svm_get_labels
FNDA:2957,_ZN6KernelC2EiPKP8svm_nodeRK13svm_parameter
FNDA:0,svm_get_sv_indices
FNDA:0,svm_get_nr_sv
FNDA:0,svm_get_svr_probability
FNDA:375521,svm_predict_values
FNDA:375498,svm_predict
FNDA:0,svm_predict_probability
FNDA:0,svm_save_model
FNDA:0,_ZL8readlineP8_IO_FILE
FNDA:0,_Z17read_model_headerP8_IO_FILEP9svm_model
FNDA:0,_ZN6KernelD0Ev
FNDA:2957,_ZN6KernelD2Ev
FNDA:258620104,_ZN6Kernel3dotEPK8svm_nodeS2_
FNDA:0,svm_load_model
FNDA:2463,svm_free_model_content
FNDA:2454,svm_free_and_destroy_model
FNDA:0,svm_destroy_param
FNDA:0,svm_check_parameter
FNDA:124464543,_ZN6Kernel10k_functionEPK8svm_nodeS2_RK13svm_parameter
FNDA:0,svm_check_probability_model
FNDA:20,svm_set_print_string_function
FNDA:0,_ZN6SolverD0Ev
FNDA:0,_ZN6SolverD2Ev
FNDA:78397946,_ZN6Solver19update_alpha_statusEi
FNDA:0,_ZL19print_string_stdoutPKc
FNDA:107044,_ZN6Solver10swap_indexEii
FNDA:3931,_ZN6Solver20reconstruct_gradientEv
FNDA:2957,_ZN6Solver5SolveEiRK7QMatrixPKdPKaPddddPNS_12SolutionInfoEi
FNDA:131861,_ZL4infoPKcz
FNDA:38738212,_ZN6Solver18select_working_setERiS0_
FNDA:10936136,_ZN6Solver9be_shrunkEidd
FNDA:114425,_ZN6Solver12do_shrinkingEv
FNDA:2957,_ZN6Solver13calculate_rhoEv
FNDA:2957,_ZN5CacheC2Eil
FNF:89
FNH:48
DA:19,312298
DA:22,371107
DA:24,0
DA:25,8871
DA:27,11828
DA:28,13780
DA:29,8871
DA:34,0
DA:36,0
DA:37,0
DA:45,0
DA:47,0
DA:48,0
DA:49,0
DA:52,131861
DA:56,131861
DA:57,131861
DA:58,131861
DA:59,131861
DA:60,131861
DA:98,2957
DA:100,2957
DA:101,2957
DA:102,2957
DA:103,2957
DA:104,2957
DA:105,2957
DA:107,2957
DA:109,653221
DA:110,650264
DA:111,2957
DA:112,2957
DA:114,116235356
DA:117,116235356
DA:118,116235356
DA:119,116235356
DA:121,116885620
DA:124,116885620
DA:125,116885620
DA:126,116885620
DA:127,116885620
DA:128,116885620
DA:130,116819570
DA:132,116819570
DA:133,116819570
DA:134,116819570
DA:136,116819570
DA:139,650454
DA:141,0
DA:142,0
DA:143,0
DA:144,0
DA:145,0
DA:146,0
DA:150,650454
DA:151,650454
DA:155,116819570
DA:156,116819570
DA:157,116819570
DA:160,36581
DA:162,36581
DA:164,36581
DA:165,36581
DA:166,36581
DA:168,36581
DA:169,36581
DA:171,36581
DA:172,18750364
DA:174,18713783
DA:176,18713783
DA:177,18713653
DA:181,130
DA:182,130
DA:183,130
DA:184,130
DA:185,130
DA:215,0
DA:217,36581
DA:218,36581
DA:219,0
DA:235,6161548
DA:237,6161548
DA:239,0
DA:241,0
DA:243,248723208
DA:245,248723208
DA:247,0
DA:249,0
DA:251,0
DA:253,0
DA:257,2957
DA:258,2957
DA:259,2957
DA:261,2957
DA:263,218
DA:264,218
DA:265,218
DA:266,0
DA:267,0
DA:268,0
DA:269,2739
DA:270,2739
DA:271,2739
DA:272,0
DA:273,0
DA:274,0
DA:275,0
DA:276,0
DA:277,0
DA:280,2957
DA:282,2957
DA:284,2739
DA:285,738135
DA:286,735396
DA:289,218
DA:290,2957
DA:292,2957
DA:294,2957
DA:295,2957
DA:296,2957
DA:298,258620104
DA:301,811570871
DA:303,552950767
DA:305,552950767
DA:306,552950767
DA:307,552950767
DA:311,0
DA:312,0
DA:314,0
DA:317,258620104
DA:320,124464543
DA:323,124464543
DA:325,2999952
DA:326,2999952
DA:327,0
DA:328,0
DA:332,376557454
DA:334,255092863
DA:336,255092863
DA:337,255092863
DA:338,255092863
DA:339,255092863
DA:343,0
DA:345,0
DA:346,0
DA:350,0
DA:351,0
DA:356,121464591
DA:358,0
DA:359,0
DA:362,121464591
DA:364,0
DA:365,0
DA:368,121464591
DA:370,0
DA:371,0
DA:372,0
DA:373,0
DA:399,2957
DA:400,0
DA:432,155862046
DA:434,78397946
DA:436,156795892
DA:437,458701
DA:438,77939245
DA:439,958006
DA:440,76981239
DA:441,78397946
DA:442,4029666360
DA:443,3891665920
DA:444,20975753
DA:454,107044
DA:456,107044
DA:457,107044
DA:458,107044
DA:459,107044
DA:460,107044
DA:461,107044
DA:462,107044
DA:463,107044
DA:464,107044
DA:466,3931
DA:470,3931
DA:475,281329
DA:476,279846
DA:478,240892
DA:479,239409
DA:480,181749
DA:482,1483
DA:483,213
DA:485,1483
DA:487,63070
DA:489,62380
DA:490,20757262
DA:491,20694882
DA:492,19755156
DA:497,42255
DA:498,41462
DA:500,25022
DA:501,25022
DA:502,4983927
DA:503,4958905
DA:508,2957
DA:512,2957
DA:513,2957
DA:514,2957
DA:515,2957
DA:517,2957
DA:518,2957
DA:519,2957
DA:520,2957
DA:521,2957
DA:525,2957
DA:526,936803
DA:527,933846
DA:532,2957
DA:533,936803
DA:534,933846
DA:535,2957
DA:540,2957
DA:541,2957
DA:543,936803
DA:545,933846
DA:546,933846
DA:548,936803
DA:549,933846
DA:551,0
DA:552,0
DA:554,0
DA:555,0
DA:556,0
DA:557,0
DA:558,0
DA:565,2957
DA:566,2957
DA:568,38735007
DA:572,38735007
DA:575,114425
DA:576,114425
DA:580,38735007
DA:583,3205
DA:585,3205
DA:586,3205
DA:587,3205
DA:593,38732050
DA:597,38732050
DA:598,38732050
DA:600,38732050
DA:601,38732050
DA:603,38732050
DA:604,38732050
DA:606,38732050
DA:608,24424616
DA:609,24424616
DA:611,24424616
DA:612,24424616
DA:613,24424616
DA:614,24424616
DA:616,24424616
DA:618,11521802
DA:620,784
DA:621,784
DA:626,12902814
DA:628,788
DA:629,788
DA:632,24424616
DA:634,11521802
DA:636,18944
DA:637,18944
DA:642,12902814
DA:644,204362
DA:645,204362
DA:651,14307434
DA:652,14307434
DA:654,14307434
DA:655,14307434
DA:656,14307434
DA:657,14307434
DA:659,14307434
DA:661,5993443
DA:663,1882
DA:664,1882
DA:669,8313991
DA:671,4586
DA:672,4586
DA:675,14307434
DA:677,5993443
DA:679,12465
DA:680,12465
DA:685,8313991
DA:687,18002
DA:688,18002
DA:695,38732050
DA:696,38732050
DA:698,3927729364
DA:700,3888997314
DA:708,38732050
DA:709,38732050
DA:711,38732050
DA:713,278781
DA:714,278781
DA:715,27974172
DA:716,27915800
DA:718,95857688
DA:719,95637279
DA:722,38732050
DA:724,251075
DA:725,251075
DA:726,3836512
DA:727,3823729
DA:729,102188294
DA:730,101950002
DA:735,2957
DA:737,0
DA:740,0
DA:741,0
DA:742,0
DA:744,0
DA:749,2957
DA:755,936803
DA:756,933846
DA:758,2957
DA:763,936803
DA:764,933846
DA:775,2957
DA:776,2957
DA:778,2957
DA:780,2957
DA:781,2957
DA:782,2957
DA:783,2957
DA:784,2957
DA:785,2957
DA:786,2957
DA:787,2957
DA:790,38738212
DA:804,3929470286
DA:805,3890732074
DA:807,1909232537
DA:808,1855591165
DA:816,1981499537
DA:817,1348242649
DA:826,38738212
DA:827,38738212
DA:829,3929470286
DA:831,3890732074
DA:833,1909232537
DA:835,1222010433
DA:836,1222010433
DA:838,1222010433
DA:841,1150293390
DA:842,1150293390
DA:843,1150293369
DA:845,21
DA:847,1150293390
DA:857,1981499537
DA:859,1890106918
DA:860,1890106918
DA:862,1890106918
DA:865,1841416414
DA:866,1841416414
DA:867,1841416414
DA:869,0
DA:871,1841416414
DA:881,38738212
DA:884,38732050
DA:885,38732050
DA:886,38732050
DA:889,10936136
DA:891,10936136
DA:893,389499
DA:894,141401
DA:896,248098
DA:898,10546637
DA:900,3658381
DA:901,1949020
DA:903,1709361
DA:909,114425
DA:916,10982579
DA:918,10868154
DA:920,5398862
DA:922,5274924
DA:925,5398862
DA:927,3468733
DA:933,5469292
DA:935,5232963
DA:938,5469292
DA:940,3779790
DA:946,114425
DA:948,726
DA:949,726
DA:950,726
DA:951,726
DA:954,10772318
DA:955,10657893
DA:957,108647
DA:958,279846
DA:960,278243
DA:962,107044
DA:963,107044
DA:965,171199
DA:968,114425
DA:970,2957
DA:975,936803
DA:977,933846
DA:979,933846
DA:981,387546
DA:986,546300
DA:988,295859
DA:995,250441
DA:996,250441
DA:1000,2957
DA:1001,1874
DA:1003,1083
DA:1005,2957
DA:1013,0
DA:1016,0
DA:1021,0
DA:1022,0
DA:1023,0
DA:1033,0
DA:1052,0
DA:1053,0
DA:1055,0
DA:1056,0
DA:1064,0
DA:1065,0
DA:1076,0
DA:1077,0
DA:1078,0
DA:1079,0
DA:1081,0
DA:1083,0
DA:1085,0
DA:1087,0
DA:1088,0
DA:1090,0
DA:1093,0
DA:1094,0
DA:1095,0
DA:1097,0
DA:1099,0
DA:1109,0
DA:1111,0
DA:1112,0
DA:1114,0
DA:1117,0
DA:1118,0
DA:1119,0
DA:1121,0
DA:1123,0
DA:1133,0
DA:1136,0
DA:1137,0
DA:1139,0
DA:1140,0
DA:1142,0
DA:1145,0
DA:1147,0
DA:1149,0
DA:1150,0
DA:1152,0
DA:1154,0
DA:1156,0
DA:1157,0
DA:1159,0
DA:1165,0
DA:1174,0
DA:1176,0
DA:1178,0
DA:1180,0
DA:1182,0
DA:1184,0
DA:1186,0
DA:1188,0
DA:1190,0
DA:1194,0
DA:1196,0
DA:1197,0
DA:1198,0
DA:1201,0
DA:1202,0
DA:1204,0
DA:1205,0
DA:1207,0
DA:1209,0
DA:1210,0
DA:1212,0
DA:1215,0
DA:1217,0
DA:1224,0
DA:1226,0
DA:1228,0
DA:1229,0
DA:1230,0
DA:1231,0
DA:1234,0
DA:1235,0
DA:1240,0
DA:1241,0
DA:1242,0
DA:1243,0
DA:1246,0
DA:1247,0
DA:1253,0
DA:1254,0
DA:1256,0
DA:1258,0
DA:1259,0
DA:1261,0
DA:1263,0
DA:1264,0
DA:1273,1952
DA:1274,1952
DA:1276,1952
DA:1277,1952
DA:1278,1952
DA:1279,611898
DA:1280,609946
DA:1281,1952
DA:1283,2412973
DA:1287,2412973
DA:1292,227883709
DA:1293,227395143
DA:1295,2412973
DA:1298,1952
DA:1300,1952
DA:1303,36581
DA:1305,36581
DA:1307,36581
DA:1308,36581
DA:1309,36581
DA:1311,1952
DA:1312,1952
DA:1313,1952
DA:1314,1952
DA:1315,1952
DA:1316,1952
DA:1326,0
DA:1327,0
DA:1329,0
DA:1330,0
DA:1331,0
DA:1332,0
DA:1333,0
DA:1335,0
DA:1339,0
DA:1341,0
DA:1342,0
DA:1344,0
DA:1347,0
DA:1349,0
DA:1352,0
DA:1354,0
DA:1356,0
DA:1357,0
DA:1359,0
DA:1360,0
DA:1361,0
DA:1362,0
DA:1363,0
DA:1372,1005
DA:1373,1005
DA:1375,1005
DA:1376,1005
DA:1377,1005
DA:1378,1005
DA:1379,1005
DA:1380,162955
DA:1382,161950
DA:1383,161950
DA:1384,161950
DA:1385,161950
DA:1386,161950
DA:1387,161950
DA:1389,1005
DA:1390,1005
DA:1391,1005
DA:1392,1005
DA:1394,70463
DA:1396,70463
DA:1397,70463
DA:1398,70463
DA:1399,70463
DA:1401,114406597
DA:1404,114406597
DA:1405,114406597
DA:1410,26879605
DA:1411,26717717
DA:1415,114406597
DA:1416,114406597
DA:1417,114406597
DA:1418,10974862229
DA:1419,10860455632
DA:1420,114406597
DA:1423,1005
DA:1425,1005
DA:1428,1005
DA:1429,1005
DA:1430,1005
DA:1431,1005
DA:1432,1005
DA:1433,1005
DA:1434,1005
DA:1435,1005
DA:1436,1005
DA:1450,1952
DA:1454,1952
DA:1455,1952
DA:1456,1952
DA:1460,611898
DA:1462,609946
DA:1463,609946
DA:1464,609946
DA:1468,1952
DA:1469,1952
DA:1472,611898
DA:1473,609946
DA:1475,1952
DA:1476,1952
DA:1478,611898
DA:1479,609946
DA:1481,1952
DA:1482,1952
DA:1483,1952
DA:1485,0
DA:1490,0
DA:1491,0
DA:1493,0
DA:1495,0
DA:1496,0
DA:1497,0
DA:1499,0
DA:1501,0
DA:1504,0
DA:1505,0
DA:1507,0
DA:1508,0
DA:1512,0
DA:1513,0
DA:1516,0
DA:1518,0
DA:1519,0
DA:1522,0
DA:1523,0
DA:1524,0
DA:1526,0
DA:1528,0
DA:1529,0
DA:1531,0
DA:1532,0
DA:1533,0
DA:1534,0
DA:1536,0
DA:1537,0
DA:1538,0
DA:1540,0
DA:1544,0
DA:1545,0
DA:1546,0
DA:1549,0
DA:1551,0
DA:1552,0
DA:1553,0
DA:1554,0
DA:1555,0
DA:1556,0
DA:1558,0
DA:1560,0
DA:1561,0
DA:1565,0
DA:1566,0
DA:1568,0
DA:1569,0
DA:1570,0
DA:1572,1005
DA:1576,1005
DA:1577,1005
DA:1578,1005
DA:1579,1005
DA:1582,162955
DA:1584,161950
DA:1585,161950
DA:1586,161950
DA:1588,161950
DA:1589,161950
DA:1590,161950
DA:1594,1005
DA:1595,1005
DA:1598,162955
DA:1600,161950
DA:1601,161950
DA:1603,1005
DA:1605,1005
DA:1606,1005
DA:1607,1005
DA:1608,1005
DA:1610,0
DA:1614,0
DA:1615,0
DA:1616,0
DA:1617,0
DA:1618,0
DA:1621,0
DA:1622,0
DA:1624,0
DA:1625,0
DA:1627,0
DA:1628,0
DA:1630,0
DA:1631,0
DA:1635,0
DA:1636,0
DA:1638,0
DA:1640,0
DA:1641,0
DA:1643,0
DA:1644,0
DA:1645,0
DA:1646,0
DA:1657,2957
DA:1661,2957
DA:1663,2957
DA:1665,1952
DA:1666,1952
DA:1668,0
DA:1669,0
DA:1671,0
DA:1672,0
DA:1674,1005
DA:1675,1005
DA:1677,0
DA:1678,0
DA:1682,2957
DA:1688,774853
DA:1690,771896
DA:1692,637987
DA:1693,637987
DA:1695,295247
DA:1696,199995
DA:1700,342740
DA:1701,187551
DA:1706,2957
DA:1710,2957
DA:1711,2957
DA:1715,0
DA:1722,0
DA:1723,0
DA:1724,0
DA:1730,0
DA:1731,0
DA:1732,0
DA:1738,0
DA:1741,0
DA:1743,0
DA:1744,0
DA:1745,0
DA:1746,0
DA:1747,0
DA:1749,0
DA:1751,0
DA:1757,0
DA:1759,0
DA:1760,0
DA:1762,0
DA:1763,0
DA:1767,0
DA:1768,0
DA:1770,0
DA:1771,0
DA:1772,0
DA:1773,0
DA:1774,0
DA:1775,0
DA:1776,0
DA:1780,0
DA:1784,0
DA:1785,0
DA:1786,0
DA:1787,0
DA:1791,0
DA:1793,0
DA:1794,0
DA:1798,0
DA:1800,0
DA:1801,0
DA:1802,0
DA:1804,0
DA:1807,0
DA:1809,0
DA:1810,0
DA:1813,0
DA:1816,0
DA:1818,0
DA:1819,0
DA:1823,0
DA:1824,0
DA:1825,0
DA:1826,0
DA:1828,0
DA:1830,0
DA:1832,0
DA:1833,0
DA:1835,0
DA:1839,0
DA:1843,0
DA:1844,0
DA:1845,0
DA:1847,0
DA:1849,0
DA:1850,0
DA:1851,0
DA:1852,0
DA:1854,0
DA:1855,0
DA:1857,0
DA:1859,0
DA:1860,0
DA:1863,0
DA:1867,0
DA:1869,0
DA:1870,0
DA:1871,0
DA:1872,0
DA:1875,0
DA:1877,0
DA:1878,0
DA:1881,0
DA:1883,0
DA:1885,0
DA:1886,0
DA:1887,0
DA:1888,0
DA:1890,0
DA:1891,0
DA:1895,0
DA:1896,0
DA:1897,0
DA:1898,0
DA:1899,0
DA:1900,0
DA:1903,0
DA:1909,0
DA:1910,0
DA:1913,0
DA:1914,0
DA:1916,0
DA:1917,0
DA:1919,0
DA:1921,0
DA:1922,0
DA:1926,0
DA:1927,0
DA:1928,0
DA:1931,0
DA:1933,0
DA:1934,0
DA:1935,0
DA:1937,0
DA:1939,0
DA:1940,0
DA:1941,0
DA:1944,0
DA:1945,0
DA:1946,0
DA:1948,0
DA:1950,0
DA:1951,0
DA:1952,0
DA:1953,0
DA:1954,0
DA:1955,0
DA:1956,0
DA:1957,0
DA:1958,0
DA:1961,0
DA:1962,0
DA:1963,0
DA:1964,0
DA:1965,0
DA:1966,0
DA:1967,0
DA:1968,0
DA:1969,0
DA:1970,0
DA:1971,0
DA:1972,0
DA:1974,0
DA:1976,0
DA:1978,0
DA:1979,0
DA:1981,0
DA:1982,0
DA:1984,0
DA:1985,0
DA:1986,0
DA:1987,0
DA:1995,0
DA:1997,0
DA:2001,0
DA:2002,0
DA:2004,0
DA:2005,0
DA:2011,0
DA:2013,0
DA:2015,0
DA:2016,0
DA:2021,0
DA:2023,0
DA:2024,0
DA:2028,0
DA:2029,0
DA:2030,0
DA:2033,0
DA:2034,0
DA:2040,0
DA:2041,0
DA:2043,0
DA:2044,0
DA:2049,0
DA:2051,0
DA:2052,0
DA:2053,0
DA:2054,0
DA:2055,0
DA:2057,0
DA:2058,0
DA:2059,0
DA:2061,0
DA:2062,0
DA:2063,0
DA:2067,0
DA:2072,0
DA:2075,0
DA:2076,0
DA:2077,0
DA:2078,0
DA:2080,0
DA:2081,0
DA:2083,0
DA:2084,0
DA:2087,0
DA:2088,0
DA:2089,0
DA:2091,0
DA:2092,0
DA:2093,0
DA:2094,0
DA:2095,0
DA:2101,1950
DA:2103,1950
DA:2106,1950
DA:2107,1950
DA:2108,1950
DA:2111,878642
DA:2113,876692
DA:2115,1378356
DA:2117,1374131
DA:2119,872467
DA:2120,872467
DA:2123,876692
DA:2124,876692
DA:2126,4225
DA:2128,0
DA:2129,0
DA:2130,0
DA:2132,4225
DA:2133,4225
DA:2134,4225
DA:2143,1950
DA:2147,0
DA:2149,0
DA:2150,0
DA:2152,0
DA:2156,1950
DA:2157,1950
DA:2158,4225
DA:2159,2275
DA:2160,878642
DA:2162,876692
DA:2163,876692
DA:2165,1950
DA:2166,4225
DA:2167,2275
DA:2169,1950
DA:2170,1950
DA:2171,1950
DA:2172,1950
DA:2173,1950
DA:2174,1950
DA:2179,2469
DA:2181,2469
DA:2182,2469
DA:2183,2469
DA:2185,2469
DA:2186,2469
DA:2190,1005
DA:2191,1005
DA:2192,1005
DA:2193,1005
DA:2194,1005
DA:2195,1005
DA:2197,1005
DA:2198,1005
DA:2199,1005
DA:2203,162955
DA:2204,161950
DA:2205,1005
DA:2206,1005
DA:2207,1005
DA:2208,1005
DA:2210,162955
DA:2211,161950
DA:2213,161830
DA:2214,161830
DA:2215,161830
DA:2216,161830
DA:2219,1005
DA:2220,0
DA:2223,0
DA:2224,0
DA:2226,1005
DA:2229,0
DA:2231,0
DA:2232,0
DA:2234,0
DA:2237,1005
DA:2242,1464
DA:2247,1464
DA:2250,1464
DA:2251,1464
DA:2252,0
DA:2254,1464
DA:2256,587123
DA:2257,585659
DA:2261,1464
DA:2262,4636
DA:2263,3172
DA:2264,1464
DA:2267,0
DA:2268,0
DA:2270,0
DA:2271,0
DA:2273,0
DA:2278,1464
DA:2279,587123
DA:2280,585659
DA:2281,1464
DA:2284,1464
DA:2286,0
DA:2287,0
DA:2291,4636
DA:2292,5124
DA:2295,1952
DA:2296,1952
DA:2297,1952
DA:2298,1952
DA:2299,1952
DA:2301,276770
DA:2303,274818
DA:2304,274818
DA:2306,337080
DA:2308,335128
DA:2309,335128
DA:2312,1952
DA:2313,0
DA:2315,1952
DA:2316,276770
DA:2317,274818
DA:2318,210877
DA:2319,337080
DA:2320,335128
DA:2321,243019
DA:2322,1952
DA:2323,1952
DA:2324,1952
DA:2329,1464
DA:2331,1464
DA:2332,4636
DA:2333,3172
DA:2335,1464
DA:2336,3416
DA:2337,1952
DA:2339,1464
DA:2341,0
DA:2342,0
DA:2343,0
DA:2345,0
DA:2346,0
DA:2351,1464
DA:2352,1464
DA:2354,1464
DA:2357,1464
DA:2358,1464
DA:2359,4636
DA:2362,588831
DA:2363,585659
DA:2365,453896
DA:2366,453896
DA:2368,3172
DA:2369,3172
DA:2372,1464
DA:2374,1464
DA:2375,1464
DA:2376,1464
DA:2378,587123
DA:2379,585659
DA:2381,453896
DA:2382,453896
DA:2385,1464
DA:2386,1464
DA:2387,3172
DA:2388,1708
DA:2390,1464
DA:2391,3172
DA:2392,1708
DA:2395,4636
DA:2396,5124
DA:2402,1952
DA:2403,1952
DA:2404,1952
DA:2405,1952
DA:2407,1952
DA:2409,276770
DA:2410,274818
DA:2411,225865
DA:2412,1952
DA:2413,337080
DA:2414,335128
DA:2415,251144
DA:2416,1952
DA:2419,1464
DA:2420,1464
DA:2421,1464
DA:2422,1464
DA:2423,1464
DA:2424,1464
DA:2425,1464
DA:2426,1464
DA:2427,1464
DA:2428,3416
DA:2429,1952
DA:2430,1464
DA:2431,1464
DA:2432,1464
DA:2434,2469
DA:2438,818
DA:2442,818
DA:2443,818
DA:2445,818
DA:2447,0
DA:2450,818
DA:2453,818
DA:2454,486
DA:2459,486
DA:2462,486
DA:2464,486
DA:2465,291519
DA:2466,291033
DA:2467,1539
DA:2468,292086
DA:2470,291033
DA:2471,291033
DA:2473,1944
DA:2475,1458
DA:2476,4617
DA:2477,3159
DA:2479,486
DA:2480,1944
DA:2481,1458
DA:2482,1539
DA:2483,4212
DA:2485,3159
DA:2486,3159
DA:2487,294192
DA:2489,291033
DA:2490,291033
DA:2493,486
DA:2494,1944
DA:2495,1458
DA:2496,486
DA:2497,486
DA:2498,486
DA:2499,486
DA:2500,486
DA:2501,486
DA:2504,80332
DA:2505,80332
DA:2507,80000
DA:2508,80000
DA:2510,1660
DA:2511,1328
DA:2514,3272
DA:2516,2454
DA:2517,2454
DA:2521,2454
DA:2522,2454
DA:2523,2454
DA:2526,372183
DA:2528,369729
DA:2529,369729
DA:2530,369729
DA:2532,374791
DA:2534,372337
DA:2535,372337
DA:2536,372337
DA:2538,2454
DA:2539,2454
DA:2540,0
DA:2542,0
DA:2543,0
DA:2544,0
DA:2545,0
DA:2546,0
DA:2548,373487
DA:2549,371033
DA:2550,2454
DA:2551,2454
DA:2552,2454
DA:2554,818
DA:2555,818
DA:2556,818
DA:2559,30
DA:2561,30
DA:2564,23
DA:2566,23
DA:2569,10
DA:2571,10
DA:2572,30
DA:2573,20
DA:2574,10
DA:2576,0
DA:2578,0
DA:2579,0
DA:2580,0
DA:2581,0
DA:2583,0
DA:2585,0
DA:2588,0
DA:2590,0
DA:2591,0
DA:2592,0
DA:2595,0
DA:2596,0
DA:2600,375521
DA:2603,375521
DA:2604,375521
DA:2607,80000
DA:2612,13206299
DA:2613,13126299
DA:2614,80000
DA:2615,80000
DA:2617,80000
DA:2618,0
DA:2624,295521
DA:2625,295521
DA:2627,295521
DA:2631,111633765
DA:2632,111338244
DA:2634,295521
DA:2635,295521
DA:2636,603264
DA:2637,307743
DA:2639,295521
DA:2640,898785
DA:2641,603264
DA:2644,898785
DA:2645,923229
DA:2648,319965
DA:2649,319965
DA:2650,319965
DA:2651,319965
DA:2654,319965
DA:2655,319965
DA:2656,51335429
DA:2657,51015464
DA:2658,61793398
DA:2659,61473433
DA:2660,319965
DA:2661,319965
DA:2663,319965
DA:2664,86547
DA:2666,233418
DA:2667,319965
DA:2671,603264
DA:2672,307743
DA:2675,295521
DA:2676,295521
DA:2677,295521
DA:2678,295521
DA:2682,375498
DA:2684,375498
DA:2686,375498
DA:2687,375498
DA:2689,80000
DA:2691,295498
DA:2692,375498
DA:2693,375498
DA:2694,375498
DA:2697,0
DA:2700,0
DA:2701,0
DA:2704,0
DA:2705,0
DA:2706,0
DA:2709,0
DA:2710,0
DA:2711,0
DA:2713,0
DA:2714,0
DA:2716,0
DA:2717,0
DA:2718,0
DA:2720,0
DA:2722,0
DA:2723,0
DA:2726,0
DA:2729,0
DA:2730,0
DA:2732,0
DA:2733,0
DA:2734,0
DA:2735,0
DA:2736,0
DA:2738,0
DA:2741,0
DA:2742,0
DA:2743,0
DA:2747,0
DA:2760,0
DA:2762,0
DA:2763,0
DA:2765,0
DA:2766,0
DA:2767,0
DA:2769,0
DA:2773,0
DA:2774,0
DA:2776,0
DA:2777,0
DA:2779,0
DA:2780,0
DA:2782,0
DA:2783,0
DA:2785,0
DA:2786,0
DA:2787,0
DA:2788,0
DA:2791,0
DA:2792,0
DA:2793,0
DA:2794,0
DA:2797,0
DA:2799,0
DA:2800,0
DA:2801,0
DA:2802,0
DA:2805,0
DA:2807,0
DA:2808,0
DA:2809,0
DA:2810,0
DA:2812,0
DA:2814,0
DA:2815,0
DA:2816,0
DA:2817,0
DA:2819,0
DA:2821,0
DA:2823,0
DA:2824,0
DA:2825,0
DA:2828,0
DA:2830,0
DA:2831,0
DA:2832,0
DA:2833,0
DA:2836,0
DA:2837,0
DA:2838,0
DA:2840,0
DA:2842,0
DA:2843,0
DA:2845,0
DA:2847,0
DA:2848,0
DA:2850,0
DA:2852,0
DA:2853,0
DA:2855,0
DA:2858,0
DA:2859,0
DA:2861,0
DA:2868,0
DA:2872,0
DA:2875,0
DA:2877,0
DA:2878,0
DA:2879,0
DA:2880,0
DA:2883,0
DA:2894,0
DA:2898,0
DA:2899,0
DA:2900,0
DA:2905,0
DA:2907,0
DA:2909,0
DA:2911,0
DA:2913,0
DA:2915,0
DA:2916,0
DA:2919,0
DA:2921,0
DA:2922,0
DA:2925,0
DA:2927,0
DA:2929,0
DA:2931,0
DA:2933,0
DA:2934,0
DA:2937,0
DA:2939,0
DA:2940,0
DA:2943,0
DA:2944,0
DA:2945,0
DA:2946,0
DA:2947,0
DA:2948,0
DA:2949,0
DA:2950,0
DA:2951,0
DA:2952,0
DA:2953,0
DA:2955,0
DA:2956,0
DA:2957,0
DA:2958,0
DA:2960,0
DA:2962,0
DA:2963,0
DA:2964,0
DA:2965,0
DA:2967,0
DA:2969,0
DA:2970,0
DA:2971,0
DA:2972,0
DA:2974,0
DA:2976,0
DA:2977,0
DA:2978,0
DA:2979,0
DA:2981,0
DA:2984,0
DA:2985,0
DA:2986,0
DA:2988,0
DA:2990,0
DA:2991,0
DA:2992,0
DA:2993,0
DA:2995,0
DA:2999,0
DA:3000,0
DA:3006,0
DA:3007,0
DA:3015,0
DA:3017,0
DA:3018,0
DA:3020,0
DA:3021,0
DA:3022,0
DA:3024,0
DA:3028,0
DA:3029,0
DA:3030,0
DA:3031,0
DA:3032,0
DA:3033,0
DA:3034,0
DA:3035,0
DA:3038,0
DA:3040,0
DA:3041,0
DA:3042,0
DA:3043,0
DA:3044,0
DA:3045,0
DA:3046,0
DA:3047,0
DA:3053,0
DA:3055,0
DA:3056,0
DA:3059,0
DA:3061,0
DA:3064,0
DA:3065,0
DA:3067,0
DA:3070,0
DA:3072,0
DA:3074,0
DA:3075,0
DA:3076,0
DA:3078,0
DA:3079,0
DA:3080,0
DA:3082,0
DA:3085,0
DA:3087,0
DA:3088,0
DA:3090,0
DA:3091,0
DA:3092,0
DA:3094,0
DA:3095,0
DA:3100,0
DA:3101,0
DA:3103,0
DA:3105,0
DA:3106,0
DA:3108,0
DA:3110,0
DA:3112,0
DA:3114,0
DA:3115,0
DA:3117,0
DA:3118,0
DA:3120,0
DA:3121,0
DA:3124,2463
DA:3126,2463
DA:3127,0
DA:3128,2463
DA:3130,5169
DA:3131,2706
DA:3134,2463
DA:3135,2463
DA:3137,2463
DA:3138,2463
DA:3140,2463
DA:3141,2463
DA:3143,2463
DA:3144,2463
DA:3146,2463
DA:3147,2463
DA:3149,2463
DA:3150,2463
DA:3152,2463
DA:3153,2463
DA:3155,2463
DA:3156,2463
DA:3158,2463
DA:3159,2463
DA:3160,2463
DA:3162,2454
DA:3164,2454
DA:3166,2454
DA:3167,2454
DA:3168,2454
DA:3170,2454
DA:3172,0
DA:3174,0
DA:3175,0
DA:3176,0
DA:3178,0
DA:3182,0
DA:3183,0
DA:3186,0
DA:3192,0
DA:3193,0
DA:3196,0
DA:3200,0
DA:3201,0
DA:3204,0
DA:3209,0
DA:3212,0
DA:3215,0
DA:3216,0
DA:3218,0
DA:3221,0
DA:3222,0
DA:3223,0
DA:3224,0
DA:3227,0
DA:3228,0
DA:3231,0
DA:3235,0
DA:3242,0
DA:3244,0
DA:3247,0
DA:3248,0
DA:3251,0
DA:3253,0
DA:3255,0
DA:3256,0
DA:3258,0
DA:3259,0
DA:3261,0
DA:3263,0
DA:3265,0
DA:3266,0
DA:3267,0
DA:3269,0
DA:3270,0
DA:3271,0
DA:3275,0
DA:3277,0
DA:3278,0
DA:3280,0
DA:3281,0
DA:3283,0
DA:3284,0
DA:3285,0
DA:3289,0
DA:3290,0
DA:3296,0
DA:3299,0
DA:3300,0
DA:3301,0
DA:3302,0
DA:3303,0
DA:3306,20
DA:3308,20
DA:3309,0
DA:3311,20
DA:3312,20
LF:1628
LH:818
end_of_record
TN:
SF:/io/lib/src/LinearKernel.cxx
FN:100,112,_ZNK5OTSVM12LinearKernel14partialHessianERKN2OT5PointES4_
FN:115,118,_ZNK5OTSVM12LinearKernel4saveERN2OT8AdvocateE
FN:120,123,_ZN5OTSVM12LinearKernel4loadERN2OT8AdvocateE
FN:33,33,_ZN5OTSVM12LinearKernel12GetClassNameB5cxx11Ev
FN:33,33,_ZNK5OTSVM12LinearKernel12getClassNameB5cxx11Ev
FN:38,42,_ZN5OTSVM12LinearKernelC2Ev
FN:46,49,_ZNK5OTSVM12LinearKernel5cloneEv
FN:53,56,_ZNK5OTSVM12LinearKernel8__repr__B5cxx11Ev
FN:60,63,_ZNK5OTSVM12LinearKernel12getParameterEv
FN:65,69,_ZN5OTSVM12LinearKernel12setParameterERKN2OT5PointE
FN:73,76,_ZNK5OTSVM12LinearKernel23getParameterDescriptionEv
FN:79,83,_ZNK5OTSVM12LinearKernelclERKN2OT5PointES4_
FN:87,96,_ZNK5OTSVM12LinearKernel15partialGradientERKN2OT5PointES4_
FNDA:4,_ZNK5OTSVM12LinearKernel14partialHessianERKN2OT5PointES4_
FNDA:1,_ZNK5OTSVM12LinearKernel4saveERN2OT8AdvocateE
FNDA:1,_ZN5OTSVM12LinearKernel4loadERN2OT8AdvocateE
FNDA:17,_ZN5OTSVM12LinearKernel12GetClassNameB5cxx11Ev
FNDA:5,_ZNK5OTSVM12LinearKernel12getClassNameB5cxx11Ev
FNDA:5,_ZN5OTSVM12LinearKernelC2Ev
FNDA:5,_ZNK5OTSVM12LinearKernel5cloneEv
FNDA:4,_ZNK5OTSVM12LinearKernel8__repr__B5cxx11Ev
FNDA:1,_ZNK5OTSVM12LinearKernel12getParameterEv
FNDA:1,_ZN5OTSVM12LinearKernel12setParameterERKN2OT5PointE
FNDA:1,_ZNK5OTSVM12LinearKernel23getParameterDescriptionEv
FNDA:125008,_ZNK5OTSVM12LinearKernelclERKN2OT5PointES4_
FNDA:4,_ZNK5OTSVM12LinearKernel15partialGradientERKN2OT5PointES4_
FNF:13
FNH:13
DA:33,22
DA:38,5
DA:39,5
DA:42,5
DA:46,5
DA:48,5
DA:53,4
DA:55,8
DA:60,1
DA:62,1
DA:65,1
DA:67,1
DA:68,0
DA:69,1
DA:73,1
DA:75,1
DA:79,125008
DA:81,125008
DA:82,125008
DA:87,4
DA:90,4
DA:91,12
DA:93,16
DA:95,4
DA:100,4
DA:103,4
DA:104,12
DA:106,20
DA:108,12
DA:111,4
DA:115,1
DA:117,1
DA:118,1
DA:120,1
DA:122,1
DA:123,1
LF:36
LH:35
end_of_record
TN:
SF:/io/lib/src/NormalRBF.cxx
FN:103,113,_ZNK5OTSVM9NormalRBF15partialGradientERKN2OT5PointES4_
FN:117,138,_ZNK5OTSVM9NormalRBF14partialHessianERKN2OT5PointES4_
FN:141,145,_ZNK5OTSVM9NormalRBF4saveERN2OT8AdvocateE
FN:148,152,_ZN5OTSVM9NormalRBF4loadERN2OT8AdvocateE
FN:31,31,_ZN5OTSVM9NormalRBF12GetClassNameB5cxx11Ev
FN:31,31,_ZNK5OTSVM9NormalRBF12getClassNameB5cxx11Ev
FN:37,42,_ZN5OTSVM9NormalRBFC2Ed
FN:46,49,_ZNK5OTSVM9NormalRBF5cloneEv
FN:53,57,_ZNK5OTSVM9NormalRBF8__repr__B5cxx11Ev
FN:61,64,_ZNK5OTSVM9NormalRBF8getSigmaEv
FN:66,69,_ZN5OTSVM9NormalRBF8setSigmaEd
FN:73,76,_ZNK5OTSVM9NormalRBF12getParameterEv
FN:78,83,_ZN5OTSVM9NormalRBF12setParameterERKN2OT5PointE
FN:87,90,_ZNK5OTSVM9NormalRBF23getParameterDescriptionEv
FN:94,99,_ZNK5OTSVM9NormalRBFclERKN2OT5PointES4_
FNDA:1504,_ZNK5OTSVM9NormalRBF15partialGradientERKN2OT5PointES4_
FNDA:504,_ZNK5OTSVM9NormalRBF14partialHessianERKN2OT5PointES4_
FNDA:3,_ZNK5OTSVM9NormalRBF4saveERN2OT8AdvocateE
FNDA:3,_ZN5OTSVM9NormalRBF4loadERN2OT8AdvocateE
FNDA:55,_ZN5OTSVM9NormalRBF12GetClassNameB5cxx11Ev
FNDA:43,_ZNK5OTSVM9NormalRBF12getClassNameB5cxx11Ev
FNDA:12,_ZN5OTSVM9NormalRBFC2Ed
FNDA:12,_ZNK5OTSVM9NormalRBF5cloneEv
FNDA:40,_ZNK5OTSVM9NormalRBF8__repr__B5cxx11Ev
FNDA:40,_ZNK5OTSVM9NormalRBF8getSigmaEv
FNDA:0,_ZN5OTSVM9NormalRBF8setSigmaEd
FNDA:1,_ZNK5OTSVM9NormalRBF12getParameterEv
FNDA:1,_ZN5OTSVM9NormalRBF12setParameterERKN2OT5PointE
FNDA:1,_ZNK5OTSVM9NormalRBF23getParameterDescriptionEv
FNDA:332608,_ZNK5OTSVM9NormalRBFclERKN2OT5PointES4_
FNF:15
FNH:14
DA:31,98
DA:37,12
DA:39,12
DA:42,12
DA:46,12
DA:48,12
DA:53,40
DA:55,80
DA:56,80
DA:61,40
DA:63,40
DA:66,0
DA:68,0
DA:69,0
DA:73,1
DA:75,1
DA:78,1
DA:80,1
DA:81,0
DA:82,1
DA:83,1
DA:87,1
DA:89,3
DA:90,2
DA:94,332608
DA:96,332608
DA:97,332608
DA:98,332608
DA:103,1504
DA:106,1504
DA:107,1504
DA:108,7512
DA:110,6008
DA:112,1504
DA:117,504
DA:120,504
DA:121,504
DA:122,504
DA:123,2512
DA:125,7020
DA:127,5012
DA:129,2008
DA:133,3004
DA:137,504
DA:141,3
DA:143,3
DA:144,3
DA:145,3
DA:148,3
DA:150,3
DA:151,3
DA:152,3
LF:52
LH:48
end_of_record
TN:
SF:/io/lib/src/PolynomialKernel.cxx
FN:102,105,_ZNK5OTSVM16PolynomialKernel12getParameterEv
FN:107,114,_ZN5OTSVM16PolynomialKernel12setParameterERKN2OT5PointE
FN:118,123,_ZNK5OTSVM16PolynomialKernelclERKN2OT5PointES4_
FN:127,130,_ZNK5OTSVM16PolynomialKernel23getParameterDescriptionEv
FN:133,146,_ZNK5OTSVM16PolynomialKernel15partialGradientERKN2OT5PointES4_
FN:150,166,_ZNK5OTSVM16PolynomialKernel14partialHessianERKN2OT5PointES4_
FN:169,175,_ZNK5OTSVM16PolynomialKernel4saveERN2OT8AdvocateE
FN:177,183,_ZN5OTSVM16PolynomialKernel4loadERN2OT8AdvocateE
FN:33,33,_ZN5OTSVM16PolynomialKernel12GetClassNameB5cxx11Ev
FN:33,33,_ZNK5OTSVM16PolynomialKernel12getClassNameB5cxx11Ev
FN:38,45,_ZN5OTSVM16PolynomialKernelC2Eddd
FN:49,52,_ZNK5OTSVM16PolynomialKernel5cloneEv
FN:56,62,_ZNK5OTSVM16PolynomialKernel8__repr__B5cxx11Ev
FN:66,69,_ZNK5OTSVM16PolynomialKernel9getDegreeEv
FN:71,74,_ZN5OTSVM16PolynomialKernel9setDegreeEd
FN:78,81,_ZNK5OTSVM16PolynomialKernel9getLinearEv
FN:83,86,_ZN5OTSVM16PolynomialKernel9setLinearEd
FN:90,93,_ZNK5OTSVM16PolynomialKernel11getConstantEv
FN:95,98,_ZN5OTSVM16PolynomialKernel11setConstantEd
FNDA:1,_ZNK5OTSVM16PolynomialKernel12getParameterEv
FNDA:1,_ZN5OTSVM16PolynomialKernel12setParameterERKN2OT5PointE
FNDA:8,_ZNK5OTSVM16PolynomialKernelclERKN2OT5PointES4_
FNDA:1,_ZNK5OTSVM16PolynomialKernel23getParameterDescriptionEv
FNDA:4,_ZNK5OTSVM16PolynomialKernel15partialGradientERKN2OT5PointES4_
FNDA:4,_ZNK5OTSVM16PolynomialKernel14partialHessianERKN2OT5PointES4_
FNDA:1,_ZNK5OTSVM16PolynomialKernel4saveERN2OT8AdvocateE
FNDA:1,_ZN5OTSVM16PolynomialKernel4loadERN2OT8AdvocateE
FNDA:17,_ZN5OTSVM16PolynomialKernel12GetClassNameB5cxx11Ev
FNDA:5,_ZNK5OTSVM16PolynomialKernel12getClassNameB5cxx11Ev
FNDA:3,_ZN5OTSVM16PolynomialKernelC2Eddd
FNDA:3,_ZNK5OTSVM16PolynomialKernel5cloneEv
FNDA:4,_ZNK5OTSVM16PolynomialKernel8__repr__B5cxx11Ev
FNDA:0,_ZNK5OTSVM16PolynomialKernel9getDegreeEv
FNDA:0,_ZN5OTSVM16PolynomialKernel9setDegreeEd
FNDA:0,_ZNK5OTSVM16PolynomialKernel9getLinearEv
FNDA:0,_ZN5OTSVM16PolynomialKernel9setLinearEd
FNDA:0,_ZNK5OTSVM16PolynomialKernel11getConstantEv
FNDA:0,_ZN5OTSVM16PolynomialKernel11setConstantEd
FNF:19
FNH:13
DA:33,22
DA:38,3
DA:40,3
DA:41,3
DA:42,3
DA:45,3
DA:49,3
DA:51,3
DA:56,4
DA:58,8
DA:59,4
DA:60,4
DA:61,8
DA:66,0
DA:68,0
DA:71,0
DA:73,0
DA:74,0
DA:78,0
DA:80,0
DA:83,0
DA:85,0
DA:86,0
DA:90,0
DA:92,0
DA:95,0
DA:97,0
DA:98,0
DA:102,1
DA:104,1
DA:107,1
DA:109,1
DA:110,0
DA:111,1
DA:112,1
DA:113,1
DA:114,1
DA:118,8
DA:120,8
DA:121,8
DA:122,8
DA:127,1
DA:129,5
DA:130,2
DA:133,4
DA:136,4
DA:137,4
DA:138,4
DA:140,12
DA:142,8
DA:145,4
DA:150,4
DA:153,4
DA:154,4
DA:155,4
DA:157,12
DA:159,20
DA:161,12
DA:165,4
DA:169,1
DA:171,1
DA:172,1
DA:173,1
DA:174,1
DA:175,1
DA:177,1
DA:179,1
DA:180,1
DA:181,1
DA:182,1
DA:183,1
LF:71
LH:55
end_of_record
TN:
SF:/io/lib/src/RationalKernel.cxx
FN:103,114,_ZNK5OTSVM14RationalKernel15partialGradientERKN2OT5PointES4_
FN:118,140,_ZNK5OTSVM14RationalKernel14partialHessianERKN2OT5PointES4_
FN:142,146,_ZNK5OTSVM14RationalKernel4saveERN2OT8AdvocateE
FN:148,152,_ZN5OTSVM14RationalKernel4loadERN2OT8AdvocateE
FN:32,32,_ZN5OTSVM14RationalKernel12GetClassNameB5cxx11Ev
FN:32,32,_ZNK5OTSVM14RationalKernel12getClassNameB5cxx11Ev
FN:37,42,_ZN5OTSVM14RationalKernelC2Ed
FN:46,49,_ZNK5OTSVM14RationalKernel5cloneEv
FN:53,57,_ZNK5OTSVM14RationalKernel8__repr__B5cxx11Ev
FN:61,64,_ZNK5OTSVM14RationalKernel11getConstantEv
FN:66,69,_ZN5OTSVM14RationalKernel11setConstantEd
FN:73,76,_ZNK5OTSVM14RationalKernel12getParameterEv
FN:78,83,_ZN5OTSVM14RationalKernel12setParameterERKN2OT5PointE
FN:87,90,_ZNK5OTSVM14RationalKernel23getParameterDescriptionEv
FN:93,99,_ZNK5OTSVM14RationalKernelclERKN2OT5PointES4_
FNDA:4,_ZNK5OTSVM14RationalKernel15partialGradientERKN2OT5PointES4_
FNDA:4,_ZNK5OTSVM14RationalKernel14partialHessianERKN2OT5PointES4_
FNDA:1,_ZNK5OTSVM14RationalKernel4saveERN2OT8AdvocateE
FNDA:1,_ZN5OTSVM14RationalKernel4loadERN2OT8AdvocateE
FNDA:17,_ZN5OTSVM14RationalKernel12GetClassNameB5cxx11Ev
FNDA:5,_ZNK5OTSVM14RationalKernel12getClassNameB5cxx11Ev
FNDA:3,_ZN5OTSVM14RationalKernelC2Ed
FNDA:3,_ZNK5OTSVM14RationalKernel5cloneEv
FNDA:4,_ZNK5OTSVM14RationalKernel8__repr__B5cxx11Ev
FNDA:4,_ZNK5OTSVM14RationalKernel11getConstantEv
FNDA:0,_ZN5OTSVM14RationalKernel11setConstantEd
FNDA:1,_ZNK5OTSVM14RationalKernel12getParameterEv
FNDA:1,_ZN5OTSVM14RationalKernel12setParameterERKN2OT5PointE
FNDA:1,_ZNK5OTSVM14RationalKernel23getParameterDescriptionEv
FNDA:8,_ZNK5OTSVM14RationalKernelclERKN2OT5PointES4_
FNF:15
FNH:14
DA:32,22
DA:37,3
DA:39,3
DA:42,3
DA:46,3
DA:48,3
DA:53,4
DA:55,8
DA:56,8
DA:61,4
DA:63,4
DA:66,0
DA:68,0
DA:69,0
DA:73,1
DA:75,1
DA:78,1
DA:80,1
DA:81,0
DA:82,1
DA:83,1
DA:87,1
DA:89,3
DA:90,2
DA:93,8
DA:95,8
DA:96,8
DA:97,8
DA:98,8
DA:103,4
DA:106,4
DA:107,4
DA:108,4
DA:109,12
DA:111,8
DA:113,4
DA:118,4
DA:121,4
DA:122,4
DA:123,4
DA:124,4
DA:125,12
DA:127,20
DA:129,12
DA:131,8
DA:135,4
DA:139,4
DA:142,1
DA:144,1
DA:145,1
DA:146,1
DA:148,1
DA:150,1
DA:151,1
DA:152,1
LF:55
LH:51
end_of_record
TN:
SF:/io/lib/src/SVMClassification.cxx
FN:129,132,_ZNK5OTSVM17SVMClassification8classifyERKN2OT5PointE
FN:135,138,_ZN5OTSVM17SVMClassification13setKernelTypeERKNS_6LibSVM10KernelTypeE
FN:140,145,_ZN5OTSVM17SVMClassification17setTradeoffFactorERKN2OT5PointE
FN:147,152,_ZN5OTSVM17SVMClassification18setKernelParameterERKN2OT5PointE
FN:155,158,_ZNK5OTSVM17SVMClassification5gradeERKN2OT5PointEm
FN:160,163,_ZNK5OTSVM17SVMClassification7predictERKN2OT5PointE
FN:165,189,_ZN5OTSVM17SVMClassification9setWeightERKN2OT5PointE
FN:191,234,_ZN5OTSVM17SVMClassification9runKMeansEm
FN:237,243,_ZNK5OTSVM17SVMClassification4saveERN2OT8AdvocateE
FN:247,253,_ZN5OTSVM17SVMClassification4loadERN2OT8AdvocateE
FN:41,41,_ZN5OTSVM17SVMClassification12GetClassNameB5cxx11Ev
FN:41,41,_ZNK5OTSVM17SVMClassification12getClassNameB5cxx11Ev
FN:47,54,_ZN5OTSVM17SVMClassificationC2Ev
FN:57,60,_ZNK5OTSVM17SVMClassification5cloneEv
FN:63,70,_ZN5OTSVM17SVMClassificationC2ERKN2OT6SampleERKNS1_7IndicesE
FN:72,75,_ZN5OTSVM17SVMClassification11getAccuracyEv
FN:78,82,_ZNK5OTSVM17SVMClassification8__repr__B5cxx11Ev
FN:84,126,_ZN5OTSVM17SVMClassification3runEv
FNDA:872,_ZNK5OTSVM17SVMClassification8classifyERKN2OT5PointE
FNDA:6,_ZN5OTSVM17SVMClassification13setKernelTypeERKNS_6LibSVM10KernelTypeE
FNDA:6,_ZN5OTSVM17SVMClassification17setTradeoffFactorERKN2OT5PointE
FNDA:6,_ZN5OTSVM17SVMClassification18setKernelParameterERKN2OT5PointE
FNDA:13,_ZNK5OTSVM17SVMClassification5gradeERKN2OT5PointEm
FNDA:10,_ZNK5OTSVM17SVMClassification7predictERKN2OT5PointE
FNDA:1,_ZN5OTSVM17SVMClassification9setWeightERKN2OT5PointE
FNDA:1,_ZN5OTSVM17SVMClassification9runKMeansEm
FNDA:1,_ZNK5OTSVM17SVMClassification4saveERN2OT8AdvocateE
FNDA:1,_ZN5OTSVM17SVMClassification4loadERN2OT8AdvocateE
FNDA:15,_ZN5OTSVM17SVMClassification12GetClassNameB5cxx11Ev
FNDA:3,_ZNK5OTSVM17SVMClassification12getClassNameB5cxx11Ev
FNDA:2,_ZN5OTSVM17SVMClassificationC2Ev
FNDA:2,_ZNK5OTSVM17SVMClassification5cloneEv
FNDA:6,_ZN5OTSVM17SVMClassificationC2ERKN2OT6SampleERKNS1_7IndicesE
FNDA:6,_ZN5OTSVM17SVMClassification11getAccuracyEv
FNDA:1,_ZNK5OTSVM17SVMClassification8__repr__B5cxx11Ev
FNDA:6,_ZN5OTSVM17SVMClassification3runEv
FNF:18
FNH:18
DA:41,18
DA:47,2
DA:49,2
DA:50,2
DA:51,4
DA:54,2
DA:57,2
DA:59,2
DA:63,6
DA:64,6
DA:65,6
DA:68,6
DA:69,6
DA:70,6
DA:72,6
DA:74,6
DA:78,1
DA:80,2
DA:81,2
DA:84,6
DA:86,6
DA:88,6
DA:89,6
DA:91,6
DA:92,0
DA:94,6
DA:95,3599
DA:96,3593
DA:97,6
DA:99,6
DA:102,60
DA:104,54
DA:105,540
DA:107,486
DA:108,486
DA:109,486
DA:112,28
DA:113,28
DA:115,486
DA:120,6
DA:121,6
DA:122,6
DA:124,6
DA:125,6
DA:126,6
DA:129,872
DA:131,872
DA:135,6
DA:137,6
DA:138,6
DA:140,6
DA:142,6
DA:143,0
DA:145,6
DA:147,6
DA:149,6
DA:150,0
DA:152,6
DA:155,13
DA:157,13
DA:160,10
DA:162,10
DA:165,1
DA:167,1
DA:171,862
DA:173,3441
DA:175,2580
DA:180,861
DA:182,2
DA:183,2
DA:187,1
DA:188,1
DA:189,1
DA:191,1
DA:195,1
DA:198,1
DA:199,1
DA:201,1
DA:203,3
DA:206,2
DA:207,1724
DA:209,1722
DA:211,1722
DA:216,2
DA:217,2
DA:218,2
DA:219,2
DA:220,2
DA:221,2
DA:222,863
DA:223,1722
DA:224,2
DA:229,862
DA:230,861
DA:231,860
DA:233,1
DA:234,2
DA:237,1
DA:239,1
DA:240,1
DA:241,1
DA:242,1
DA:243,1
DA:247,1
DA:249,1
DA:250,1
DA:251,1
DA:252,1
DA:253,1
LF:109
LH:106
end_of_record
TN:
SF:/io/lib/src/SVMKernel.cxx
FN:100,103,_ZNK5OTSVM9SVMKernel15partialGradientERKN2OT5PointES4_
FN:107,110,_ZNK5OTSVM9SVMKernel14partialHessianERKN2OT5PointES4_
FN:32,32,_ZN5OTSVM9SVMKernel12GetClassNameB5cxx11Ev
FN:32,32,_ZNK5OTSVM9SVMKernel12getClassNameB5cxx11Ev
FN:36,40,_ZN5OTSVM9SVMKernelC2Ev
FN:44,48,_ZN5OTSVM9SVMKernelC2ERKNS_23SVMKernelImplementationE
FN:52,56,_ZN5OTSVM9SVMKernelC2ERN2OT7PointerINS_23SVMKernelImplementationESt10shared_ptrEE
FN:60,64,_ZNK5OTSVM9SVMKernel8__repr__B5cxx11Ev
FN:68,71,_ZNK5OTSVM9SVMKernel7__str__ERKNSt7__cxx1112basic_stringIcSt11char_traitsIcESaIcEEE
FN:75,78,_ZNK5OTSVM9SVMKernel12getParameterEv
FN:80,84,_ZN5OTSVM9SVMKernel12setParameterERKN2OT5PointE
FN:87,90,_ZNK5OTSVM9SVMKernel23getParameterDescriptionEv
FN:93,96,_ZNK5OTSVM9SVMKernelclERKN2OT5PointES4_
FNDA:1512,_ZNK5OTSVM9SVMKernel15partialGradientERKN2OT5PointES4_
FNDA:512,_ZNK5OTSVM9SVMKernel14partialHessianERKN2OT5PointES4_
FNDA:42,_ZN5OTSVM9SVMKernel12GetClassNameB5cxx11Ev
FNDA:42,_ZNK5OTSVM9SVMKernel12getClassNameB5cxx11Ev
FNDA:12,_ZN5OTSVM9SVMKernelC2Ev
FNDA:15,_ZN5OTSVM9SVMKernelC2ERKNS_23SVMKernelImplementationE
FNDA:0,_ZN5OTSVM9SVMKernelC2ERN2OT7PointerINS_23SVMKernelImplementationESt10shared_ptrEE
FNDA:42,_ZNK5OTSVM9SVMKernel8__repr__B5cxx11Ev
FNDA:6,_ZNK5OTSVM9SVMKernel7__str__ERKNSt7__cxx1112basic_stringIcSt11char_traitsIcESaIcEEE
FNDA:0,_ZNK5OTSVM9SVMKernel12getParameterEv
FNDA:0,_ZN5OTSVM9SVMKernel12setParameterERKN2OT5PointE
FNDA:0,_ZNK5OTSVM9SVMKernel23getParameterDescriptionEv
FNDA:457612,_ZNK5OTSVM9SVMKernelclERKN2OT5PointES4_
FNF:13
FNH:9
DA:32,84
DA:36,12
DA:37,12
DA:40,12
DA:44,15
DA:45,15
DA:48,15
DA:52,0
DA:53,0
DA:56,0
DA:60,42
DA:62,84
DA:63,126
DA:68,6
DA:70,6
DA:75,0
DA:77,0
DA:80,0
DA:82,0
DA:83,0
DA:84,0
DA:87,0
DA:89,0
DA:93,457612
DA:95,457612
DA:100,1512
DA:102,1512
DA:107,512
DA:109,512
LF:29
LH:18
end_of_record
TN:
SF:/io/lib/src/SVMKernelImplementation.cxx
FN:101,104,_ZN5OTSVM23SVMKernelImplementation4loadERN2OT8AdvocateE
FN:33,33,_ZN5OTSVM23SVMKernelImplementation12GetClassNameB5cxx11Ev
FN:33,33,_ZNK5OTSVM23SVMKernelImplementation12getClassNameB5cxx11Ev
FN:36,40,_ZN5OTSVM23SVMKernelImplementationC2Ev
FN:43,46,_ZNK5OTSVM23SVMKernelImplementation5cloneEv
FN:49,54,_ZNK5OTSVM23SVMKernelImplementation8__repr__B5cxx11Ev
FN:58,61,_ZNK5OTSVM23SVMKernelImplementation12getParameterEv
FN:63,66,_ZN5OTSVM23SVMKernelImplementation12setParameterERKN2OT5PointE
FN:68,71,_ZNK5OTSVM23SVMKernelImplementation23getParameterDescriptionEv
FN:74,77,_ZNK5OTSVM23SVMKernelImplementationclERKN2OT5PointES4_
FN:81,84,_ZNK5OTSVM23SVMKernelImplementation15partialGradientERKN2OT5PointES4_
FN:88,91,_ZNK5OTSVM23SVMKernelImplementation14partialHessianERKN2OT5PointES4_
FN:94,97,_ZNK5OTSVM23SVMKernelImplementation4saveERN2OT8AdvocateE
FNDA:8,_ZN5OTSVM23SVMKernelImplementation4loadERN2OT8AdvocateE
FNDA:0,_ZN5OTSVM23SVMKernelImplementation12GetClassNameB5cxx11Ev
FNDA:0,_ZNK5OTSVM23SVMKernelImplementation12getClassNameB5cxx11Ev
FNDA:29,_ZN5OTSVM23SVMKernelImplementationC2Ev
FNDA:0,_ZNK5OTSVM23SVMKernelImplementation5cloneEv
FNDA:0,_ZNK5OTSVM23SVMKernelImplementation8__repr__B5cxx11Ev
FNDA:0,_ZNK5OTSVM23SVMKernelImplementation12getParameterEv
FNDA:0,_ZN5OTSVM23SVMKernelImplementation12setParameterERKN2OT5PointE
FNDA:0,_ZNK5OTSVM23SVMKernelImplementation23getParameterDescriptionEv
FNDA:0,_ZNK5OTSVM23SVMKernelImplementationclERKN2OT5PointES4_
FNDA:0,_ZNK5OTSVM23SVMKernelImplementation15partialGradientERKN2OT5PointES4_
FNDA:0,_ZNK5OTSVM23SVMKernelImplementation14partialHessianERKN2OT5PointES4_
FNDA:8,_ZNK5OTSVM23SVMKernelImplementation4saveERN2OT8AdvocateE
FNF:13
FNH:3
DA:33,0
DA:36,29
DA:37,29
DA:40,29
DA:43,0
DA:45,0
DA:49,0
DA:51,0
DA:52,0
DA:53,0
DA:58,0
DA:60,0
DA:63,0
DA:65,0
DA:68,0
DA:70,0
DA:74,0
DA:76,0
DA:81,0
DA:83,0
DA:88,0
DA:90,0
DA:94,8
DA:96,8
DA:97,8
DA:101,8
DA:103,8
DA:104,8
LF:28
LH:9
end_of_record
TN:
SF:/io/lib/src/SVMKernelRegressionEvaluation.cxx
FN:103,106,_ZNK5OTSVM29SVMKernelRegressionEvaluation17getInputDimensionEv
FN:109,112,_ZNK5OTSVM29SVMKernelRegressionEvaluation18getOutputDimensionEv
FN:115,122,_ZNK5OTSVM29SVMKernelRegressionEvaluation4saveERN2OT8AdvocateE
FN:125,132,_ZN5OTSVM29SVMKernelRegressionEvaluation4loadERN2OT8AdvocateE
FN:30,30,_ZN5OTSVM29SVMKernelRegressionEvaluation12GetClassNameB5cxx11Ev
FN:30,30,_ZNK5OTSVM29SVMKernelRegressionEvaluation12getClassNameB5cxx11Ev
FN:35,39,_ZN5OTSVM29SVMKernelRegressionEvaluationC2Ev
FN:42,53,_ZN5OTSVM29SVMKernelRegressionEvaluationC2ERKNS_9SVMKernelERKN2OT5PointERKNS4_6SampleEd
FN:56,59,_ZNK5OTSVM29SVMKernelRegressionEvaluation5cloneEv
FN:62,66,_ZNK5OTSVM29SVMKernelRegressionEvaluationeqERKS0_
FN:69,79,_ZNK5OTSVM29SVMKernelRegressionEvaluation8__repr__B5cxx11Ev
FN:82,100,_ZNK5OTSVM29SVMKernelRegressionEvaluationclERKN2OT5PointE
FNDA:140,_ZNK5OTSVM29SVMKernelRegressionEvaluation17getInputDimensionEv
FNDA:88,_ZNK5OTSVM29SVMKernelRegressionEvaluation18getOutputDimensionEv
FNDA:2,_ZNK5OTSVM29SVMKernelRegressionEvaluation4saveERN2OT8AdvocateE
FNDA:2,_ZN5OTSVM29SVMKernelRegressionEvaluation4loadERN2OT8AdvocateE
FNDA:26,_ZN5OTSVM29SVMKernelRegressionEvaluation12GetClassNameB5cxx11Ev
FNDA:2,_ZNK5OTSVM29SVMKernelRegressionEvaluation12getClassNameB5cxx11Ev
FNDA:2,_ZN5OTSVM29SVMKernelRegressionEvaluationC2Ev
FNDA:9,_ZN5OTSVM29SVMKernelRegressionEvaluationC2ERKNS_9SVMKernelERKN2OT5PointERKNS4_6SampleEd
FNDA:2,_ZNK5OTSVM29SVMKernelRegressionEvaluation5cloneEv
FNDA:0,_ZNK5OTSVM29SVMKernelRegressionEvaluationeqERKS0_
FNDA:12,_ZNK5OTSVM29SVMKernelRegressionEvaluation8__repr__B5cxx11Ev
FNDA:1956,_ZNK5OTSVM29SVMKernelRegressionEvaluationclERKN2OT5PointE
FNF:12
FNH:11
DA:30,28
DA:35,2
DA:36,2
DA:39,2
DA:42,9
DA:45,9
DA:50,9
DA:53,9
DA:56,2
DA:58,2
DA:62,0
DA:64,0
DA:65,0
DA:69,12
DA:71,12
DA:72,12
DA:73,36
DA:74,36
DA:75,36
DA:76,12
DA:78,24
DA:82,1956
DA:87,1956
DA:88,0
DA:91,1956
DA:92,1956
DA:93,459556
DA:95,457600
DA:96,915200
DA:98,1956
DA:99,3912
DA:103,140
DA:105,140
DA:109,88
DA:111,88
DA:115,2
DA:117,2
DA:118,2
DA:119,2
DA:120,2
DA:121,2
DA:122,2
DA:125,2
DA:127,2
DA:128,2
DA:129,2
DA:130,2
DA:131,2
DA:132,2
LF:49
LH:45
end_of_record
TN:
SF:/io/lib/src/SVMKernelRegressionGradient.cxx
FN:110,113,_ZNK5OTSVM27SVMKernelRegressionGradient17getInputDimensionEv
FN:116,119,_ZNK5OTSVM27SVMKernelRegressionGradient18getOutputDimensionEv
FN:122,129,_ZNK5OTSVM27SVMKernelRegressionGradient4saveERN2OT8AdvocateE
FN:132,139,_ZN5OTSVM27SVMKernelRegressionGradient4loadERN2OT8AdvocateE
FN:30,30,_ZN5OTSVM27SVMKernelRegressionGradient12GetClassNameB5cxx11Ev
FN:30,30,_ZNK5OTSVM27SVMKernelRegressionGradient12getClassNameB5cxx11Ev
FN:35,39,_ZN5OTSVM27SVMKernelRegressionGradientC2Ev
FN:43,54,_ZN5OTSVM27SVMKernelRegressionGradientC2ERKNS_9SVMKernelERKN2OT5PointERKNS4_6SampleEd
FN:58,61,_ZNK5OTSVM27SVMKernelRegressionGradient5cloneEv
FN:64,68,_ZNK5OTSVM27SVMKernelRegressionGradienteqERKS0_
FN:71,80,_ZNK5OTSVM27SVMKernelRegressionGradient8__repr__B5cxx11Ev
FN:83,107,_ZNK5OTSVM27SVMKernelRegressionGradient8gradientERKN2OT5PointE
FNDA:0,_ZNK5OTSVM27SVMKernelRegressionGradient17getInputDimensionEv
FNDA:0,_ZNK5OTSVM27SVMKernelRegressionGradient18getOutputDimensionEv
FNDA:2,_ZNK5OTSVM27SVMKernelRegressionGradient4saveERN2OT8AdvocateE
FNDA:2,_ZN5OTSVM27SVMKernelRegressionGradient4loadERN2OT8AdvocateE
FNDA:26,_ZN5OTSVM27SVMKernelRegressionGradient12GetClassNameB5cxx11Ev
FNDA:2,_ZNK5OTSVM27SVMKernelRegressionGradient12getClassNameB5cxx11Ev
FNDA:2,_ZN5OTSVM27SVMKernelRegressionGradientC2Ev
FNDA:9,_ZN5OTSVM27SVMKernelRegressionGradientC2ERKNS_9SVMKernelERKN2OT5PointERKNS4_6SampleEd
FNDA:2,_ZNK5OTSVM27SVMKernelRegressionGradient5cloneEv
FNDA:0,_ZNK5OTSVM27SVMKernelRegressionGradienteqERKS0_
FNDA:12,_ZNK5OTSVM27SVMKernelRegressionGradient8__repr__B5cxx11Ev
FNDA:6,_ZNK5OTSVM27SVMKernelRegressionGradient8gradientERKN2OT5PointE
FNF:12
FNH:9
DA:30,28
DA:35,2
DA:36,2
DA:39,2
DA:43,9
DA:46,9
DA:51,9
DA:54,9
DA:58,2
DA:60,2
DA:64,0
DA:66,0
DA:67,0
DA:71,12
DA:73,12
DA:74,12
DA:75,36
DA:76,36
DA:77,36
DA:78,12
DA:79,24
DA:83,6
DA:88,6
DA:89,0
DA:92,6
DA:93,6
DA:94,1506
DA:96,1500
DA:97,4500
DA:101,6
DA:102,30
DA:104,24
DA:106,6
DA:110,0
DA:112,0
DA:116,0
DA:118,0
DA:122,2
DA:124,2
DA:125,2
DA:126,2
DA:127,2
DA:128,2
DA:129,2
DA:132,2
DA:134,2
DA:135,2
DA:136,2
DA:137,2
DA:138,2
DA:139,2
LF:51
LH:43
end_of_record
TN:
SF:/io/lib/src/SVMKernelRegressionHessian.cxx
FN:107,110,_ZNK5OTSVM26SVMKernelRegressionHessian17getInputDimensionEv
FN:113,116,_ZNK5OTSVM26SVMKernelRegressionHessian18getOutputDimensionEv
FN:119,126,_ZNK5OTSVM26SVMKernelRegressionHessian4saveERN2OT8AdvocateE
FN:129,136,_ZN5OTSVM26SVMKernelRegressionHessian4loadERN2OT8AdvocateE
FN:30,30,_ZN5OTSVM26SVMKernelRegressionHessian12GetClassNameB5cxx11Ev
FN:30,30,_ZNK5OTSVM26SVMKernelRegressionHessian12getClassNameB5cxx11Ev
FN:35,39,_ZN5OTSVM26SVMKernelRegressionHessianC2Ev
FN:43,54,_ZN5OTSVM26SVMKernelRegressionHessianC2ERKNS_9SVMKernelERKN2OT5PointERKNS4_6SampleEd
FN:57,60,_ZNK5OTSVM26SVMKernelRegressionHessian5cloneEv
FN:63,67,_ZNK5OTSVM26SVMKernelRegressionHessianeqERKS0_
FN:70,79,_ZNK5OTSVM26SVMKernelRegressionHessian8__repr__B5cxx11Ev
FN:82,104,_ZNK5OTSVM26SVMKernelRegressionHessian7hessianERKN2OT5PointE
FNDA:0,_ZNK5OTSVM26SVMKernelRegressionHessian17getInputDimensionEv
FNDA:0,_ZNK5OTSVM26SVMKernelRegressionHessian18getOutputDimensionEv
FNDA:2,_ZNK5OTSVM26SVMKernelRegressionHessian4saveERN2OT8AdvocateE
FNDA:2,_ZN5OTSVM26SVMKernelRegressionHessian4loadERN2OT8AdvocateE
FNDA:26,_ZN5OTSVM26SVMKernelRegressionHessian12GetClassNameB5cxx11Ev
FNDA:2,_ZNK5OTSVM26SVMKernelRegressionHessian12getClassNameB5cxx11Ev
FNDA:2,_ZN5OTSVM26SVMKernelRegressionHessianC2Ev
FNDA:9,_ZN5OTSVM26SVMKernelRegressionHessianC2ERKNS_9SVMKernelERKN2OT5PointERKNS4_6SampleEd
FNDA:2,_ZNK5OTSVM26SVMKernelRegressionHessian5cloneEv
FNDA:0,_ZNK5OTSVM26SVMKernelRegressionHessianeqERKS0_
FNDA:12,_ZNK5OTSVM26SVMKernelRegressionHessian8__repr__B5cxx11Ev
FNDA:2,_ZNK5OTSVM26SVMKernelRegressionHessian7hessianERKN2OT5PointE
FNF:12
FNH:9
DA:30,28
DA:35,2
DA:36,2
DA:39,2
DA:43,9
DA:46,9
DA:51,9
DA:54,9
DA:57,2
DA:59,2
DA:63,0
DA:65,0
DA:66,0
DA:70,12
DA:72,12
DA:73,12
DA:74,36
DA:75,36
DA:76,36
DA:77,12
DA:78,24
DA:82,2
DA:87,2
DA:88,0
DA:91,2
DA:92,2
DA:93,502
DA:94,500
DA:95,1500
DA:98,2
DA:99,10
DA:100,28
DA:101,20
DA:103,2
DA:107,0
DA:109,0
DA:113,0
DA:115,0
DA:119,2
DA:121,2
DA:122,2
DA:123,2
DA:124,2
DA:125,2
DA:126,2
DA:129,2
DA:131,2
DA:132,2
DA:133,2
DA:134,2
DA:135,2
DA:136,2
LF:52
LH:44
end_of_record
TN:
SF:/io/lib/src/SVMRegression.cxx
FN:177,180,_ZNK5OTSVM13SVMRegression14getInputSampleEv
FN:183,186,_ZNK5OTSVM13SVMRegression15getOutputSampleEv
FN:189,192,_ZN5OTSVM13SVMRegression17setTradeoffFactorERKN2OT5PointE
FN:194,197,_ZN5OTSVM13SVMRegression17getTradeoffFactorEv
FN:200,203,_ZN5OTSVM13SVMRegression18setKernelParameterERKN2OT5PointE
FN:205,208,_ZN5OTSVM13SVMRegression18getKernelParameterEv
FN:211,214,_ZNK5OTSVM13SVMRegression9getResultEv
FN:217,225,_ZNK5OTSVM13SVMRegression4saveERN2OT8AdvocateE
FN:229,237,_ZN5OTSVM13SVMRegression4loadERN2OT8AdvocateE
FN:42,42,_ZN5OTSVM13SVMRegression12GetClassNameB5cxx11Ev
FN:42,42,_ZNK5OTSVM13SVMRegression12getClassNameB5cxx11Ev
FN:45,48,_ZN5OTSVM13SVMRegressionC2Ev
FN:51,63,_ZN5OTSVM13SVMRegressionC2ERKN2OT6SampleES4_NS_6LibSVM10KernelTypeE
FN:67,70,_ZNK5OTSVM13SVMRegression5cloneEv
FN:73,174,_ZN5OTSVM13SVMRegression3runEv
FNDA:0,_ZNK5OTSVM13SVMRegression14getInputSampleEv
FNDA:0,_ZNK5OTSVM13SVMRegression15getOutputSampleEv
FNDA:9,_ZN5OTSVM13SVMRegression17setTradeoffFactorERKN2OT5PointE
FNDA:0,_ZN5OTSVM13SVMRegression17getTradeoffFactorEv
FNDA:9,_ZN5OTSVM13SVMRegression18setKernelParameterERKN2OT5PointE
FNDA:2,_ZN5OTSVM13SVMRegression18getKernelParameterEv
FNDA:8,_ZNK5OTSVM13SVMRegression9getResultEv
FNDA:1,_ZNK5OTSVM13SVMRegression4saveERN2OT8AdvocateE
FNDA:1,_ZN5OTSVM13SVMRegression4loadERN2OT8AdvocateE
FNDA:14,_ZN5OTSVM13SVMRegression12GetClassNameB5cxx11Ev
FNDA:2,_ZNK5OTSVM13SVMRegression12getClassNameB5cxx11Ev
FNDA:2,_ZN5OTSVM13SVMRegressionC2Ev
FNDA:10,_ZN5OTSVM13SVMRegressionC2ERKN2OT6SampleES4_NS_6LibSVM10KernelTypeE
FNDA:2,_ZNK5OTSVM13SVMRegression5cloneEv
FNDA:8,_ZN5OTSVM13SVMRegression3runEv
FNF:15
FNH:12
DA:42,16
DA:45,2
DA:48,2
DA:51,10
DA:53,10
DA:55,10
DA:56,10
DA:58,20
DA:60,10
DA:61,10
DA:62,10
DA:63,10
DA:67,2
DA:69,2
DA:73,8
DA:75,8
DA:76,8
DA:77,8
DA:79,8
DA:80,0
DA:82,8
DA:83,8
DA:85,8
DA:86,8
DA:87,8
DA:92,8
DA:93,8
DA:94,8
DA:96,8
DA:97,8
DA:103,17
DA:105,18
DA:107,9
DA:110,50
DA:112,42
DA:113,374
DA:115,332
DA:117,332
DA:119,332
DA:122,40
DA:123,40
DA:125,332
DA:129,9
DA:130,9
DA:131,9
DA:133,9
DA:135,9
DA:136,9
DA:138,9
DA:140,9
DA:141,9
DA:142,9
DA:143,18
DA:146,9
DA:147,9
DA:150,8
DA:151,8
DA:152,8
DA:155,8
DA:156,8
DA:157,8
DA:158,8
DA:160,17
DA:163,1959
DA:165,1950
DA:166,1950
DA:168,9
DA:169,9
DA:170,9
DA:173,16
DA:174,16
DA:177,0
DA:179,0
DA:183,0
DA:185,0
DA:189,9
DA:192,9
DA:194,0
DA:196,0
DA:200,9
DA:203,9
DA:205,2
DA:207,2
DA:211,8
DA:213,8
DA:217,1
DA:219,1
DA:220,1
DA:221,1
DA:222,1
DA:223,1
DA:224,1
DA:225,1
DA:229,1
DA:231,1
DA:232,1
DA:233,1
DA:234,1
DA:235,1
DA:236,1
DA:237,1
LF:101
LH:94
end_of_record
TN:
SF:/io/lib/src/SVMResourceMap.cxx
FN:31,43,_ZN5OTSVM19SVMResourceMap_initC2Ev
FN:34,42,_ZZN5OTSVM19SVMResourceMap_initC4EvENKUlvE_clEv
FNDA:12,_ZN5OTSVM19SVMResourceMap_initC2Ev
FNDA:12,_ZZN5OTSVM19SVMResourceMap_initC4EvENKUlvE_clEv
FNF:2
FNH:2
DA:31,12
DA:34,12
DA:36,12
DA:37,12
DA:38,12
DA:39,12
DA:40,12
DA:41,12
DA:42,12
DA:43,12
LF:10
LH:10
end_of_record
TN:
SF:/io/lib/src/SigmoidKernel.cxx
FN:100,103,_ZNK5OTSVM13SigmoidKernel23getParameterDescriptionEv
FN:106,111,_ZNK5OTSVM13SigmoidKernelclERKN2OT5PointES4_
FN:115,125,_ZNK5OTSVM13SigmoidKernel15partialGradientERKN2OT5PointES4_
FN:129,143,_ZNK5OTSVM13SigmoidKernel14partialHessianERKN2OT5PointES4_
FN:146,151,_ZNK5OTSVM13SigmoidKernel4saveERN2OT8AdvocateE
FN:153,158,_ZN5OTSVM13SigmoidKernel4loadERN2OT8AdvocateE
FN:33,33,_ZN5OTSVM13SigmoidKernel12GetClassNameB5cxx11Ev
FN:33,33,_ZNK5OTSVM13SigmoidKernel12getClassNameB5cxx11Ev
FN:38,44,_ZN5OTSVM13SigmoidKernelC2Edd
FN:48,51,_ZNK5OTSVM13SigmoidKernel5cloneEv
FN:55,60,_ZNK5OTSVM13SigmoidKernel8__repr__B5cxx11Ev
FN:64,67,_ZNK5OTSVM13SigmoidKernel9getLinearEv
FN:69,72,_ZN5OTSVM13SigmoidKernel9setLinearEd
FN:76,79,_ZNK5OTSVM13SigmoidKernel11getConstantEv
FN:81,84,_ZN5OTSVM13SigmoidKernel11setConstantEd
FN:86,92,_ZN5OTSVM13SigmoidKernel12setParameterERKN2OT5PointE
FN:94,97,_ZNK5OTSVM13SigmoidKernel12getParameterEv
FNDA:1,_ZNK5OTSVM13SigmoidKernel23getParameterDescriptionEv
FNDA:8,_ZNK5OTSVM13SigmoidKernelclERKN2OT5PointES4_
FNDA:4,_ZNK5OTSVM13SigmoidKernel15partialGradientERKN2OT5PointES4_
FNDA:4,_ZNK5OTSVM13SigmoidKernel14partialHessianERKN2OT5PointES4_
FNDA:1,_ZNK5OTSVM13SigmoidKernel4saveERN2OT8AdvocateE
FNDA:1,_ZN5OTSVM13SigmoidKernel4loadERN2OT8AdvocateE
FNDA:17,_ZN5OTSVM13SigmoidKernel12GetClassNameB5cxx11Ev
FNDA:5,_ZNK5OTSVM13SigmoidKernel12getClassNameB5cxx11Ev
FNDA:3,_ZN5OTSVM13SigmoidKernelC2Edd
FNDA:3,_ZNK5OTSVM13SigmoidKernel5cloneEv
FNDA:4,_ZNK5OTSVM13SigmoidKernel8__repr__B5cxx11Ev
FNDA:0,_ZNK5OTSVM13SigmoidKernel9getLinearEv
FNDA:0,_ZN5OTSVM13SigmoidKernel9setLinearEd
FNDA:0,_ZNK5OTSVM13SigmoidKernel11getConstantEv
FNDA:0,_ZN5OTSVM13SigmoidKernel11setConstantEd
FNDA:1,_ZN5OTSVM13SigmoidKernel12setParameterERKN2OT5PointE
FNDA:1,_ZNK5OTSVM13SigmoidKernel12getParameterEv
FNF:17
FNH:13
DA:33,22
DA:38,3
DA:40,3
DA:41,3
DA:44,3
DA:48,3
DA:50,3
DA:55,4
DA:57,8
DA:58,4
DA:59,8
DA:64,0
DA:66,0
DA:69,0
DA:71,0
DA:72,0
DA:76,0
DA:78,0
DA:81,0
DA:83,0
DA:84,0
DA:86,1
DA:88,1
DA:89,0
DA:90,1
DA:91,1
DA:92,1
DA:94,1
DA:96,1
DA:100,1
DA:102,4
DA:103,2
DA:106,8
DA:108,8
DA:109,8
DA:110,8
DA:115,4
DA:118,4
DA:119,4
DA:120,12
DA:122,8
DA:124,4
DA:129,4
DA:132,4
DA:133,4
DA:134,12
DA:136,20
DA:138,12
DA:142,4
DA:146,1
DA:148,1
DA:149,1
DA:150,1
DA:151,1
DA:153,1
DA:155,1
DA:156,1
DA:157,1
DA:158,1
LF:59
LH:48
end_of_record
TN:
SF:/io/lib/src/otsvm/ExponentialRBF.hxx
FNF:0
FNH:0
DA:35,3
LF:1
LH:1
end_of_record
TN:
SF:/io/lib/src/otsvm/LinearKernel.hxx
FNF:0
FNH:0
DA:30,5
LF:1
LH:1
end_of_record
TN:
SF:/io/lib/src/otsvm/NormalRBF.hxx
FNF:0
FNH:0
DA:34,19
LF:1
LH:1
end_of_record
TN:
SF:/io/lib/src/otsvm/PolynomialKernel.hxx
FNF:0
FNH:0
DA:34,0
LF:1
LH:0
end_of_record
TN:
SF:/io/lib/src/otsvm/RationalKernel.hxx
FNF:0
FNH:0
DA:39,3
LF:1
LH:1
end_of_record
TN:
SF:/io/lib/src/otsvm/SVMKernel.hxx
FNF:0
FNH:0
DA:38,180
LF:1
LH:1
end_of_record
TN:
SF:/io/lib/src/otsvm/SVMKernelImplementation.hxx
FNF:0
FNH:0
DA:38,9
LF:1
LH:1
end_of_record
TN:
SF:/io/lib/src/otsvm/SigmoidKernel.hxx
FNF:0
FNH:0
DA:33,3
LF:1
LH:1
end_of_record
